/tmp/tmprujqp14X.asm:
     1                          MODULE court_dimensions_c
     2                          LINE 0, "court_dimensions.c"
court_dimensions.c:
                                
     1                          ;--------------------------------------------------------
     2                          ; File Created by SDCC : free open source ISO C Compiler
     3                          ; Version 4.3.0 #14210 (Mac OS X ppc)
     4                          ;--------------------------------------------------------
     5                          	.zxn
     6                          ; Processed by Z88DK
     7                          ;--------------------------------------------------------
     8                          
     9                          	EXTERN __divschar
    10                          	EXTERN __divschar_callee
    11                          	EXTERN __divsint
    12                          	EXTERN __divsint_callee
    13                          	EXTERN __divslong
    14                          	EXTERN __divslong_callee
    15                          	EXTERN __divslonglong
    16                          	EXTERN __divslonglong_callee
    17                          	EXTERN __divsuchar
    18                          	EXTERN __divsuchar_callee
    19                          	EXTERN __divuchar
    20                          	EXTERN __divuchar_callee
    21                          	EXTERN __divuint
    22                          	EXTERN __divuint_callee
    23                          	EXTERN __divulong
    24                          	EXTERN __divulong_callee
    25                          	EXTERN __divulonglong
    26                          	EXTERN __divulonglong_callee
    27                          	EXTERN __divuschar
    28                          	EXTERN __divuschar_callee
    29                          	EXTERN __modschar
    30                          	EXTERN __modschar_callee
    31                          	EXTERN __modsint
    32                          	EXTERN __modsint_callee
    33                          	EXTERN __modslong
    34                          	EXTERN __modslong_callee
    35                          	EXTERN __modslonglong
    36                          	EXTERN __modslonglong_callee
    37                          	EXTERN __modsuchar
    38                          	EXTERN __modsuchar_callee
    39                          	EXTERN __moduchar
    40                          	EXTERN __moduchar_callee
    41                          	EXTERN __moduint
    42                          	EXTERN __moduint_callee
    43                          	EXTERN __modulong
    44                          	EXTERN __modulong_callee
    45                          	EXTERN __modulonglong
    46                          	EXTERN __modulonglong_callee
    47                          	EXTERN __moduschar
    48                          	EXTERN __moduschar_callee
    49                          	EXTERN __mulint
    50                          	EXTERN __mulint_callee
    51                          	EXTERN __mullong
    52                          	EXTERN __mullong_callee
    53                          	EXTERN __mullonglong
    54                          	EXTERN __mullonglong_callee
    55                          	EXTERN __mulschar
    56                          	EXTERN __mulschar_callee
    57                          	EXTERN __mulsuchar
    58                          	EXTERN __mulsuchar_callee
    59                          	EXTERN __muluchar
    60                          	EXTERN __muluchar_callee
    61                          	EXTERN __muluschar
    62                          	EXTERN __muluschar_callee
    63                          	EXTERN __rlslonglong
    64                          	EXTERN __rlslonglong_callee
    65                          	EXTERN __rlulonglong
    66                          	EXTERN __rlulonglong_callee
    67                          	EXTERN __rrslonglong
    68                          	EXTERN __rrslonglong_callee
    69                          	EXTERN __rrulonglong
    70                          	EXTERN __rrulonglong_callee
    71                          	EXTERN ___mulsint2slong
    72                          	EXTERN ___mulsint2slong_callee
    73                          	EXTERN ___muluint2ulong
    74                          	EXTERN ___muluint2ulong_callee
    75                          	EXTERN ___sdcc_call_hl
    76                          	EXTERN ___sdcc_call_iy
    77                          	EXTERN ___sdcc_enter_ix
    78                          	EXTERN banked_call
    79                          	EXTERN _banked_ret
    80                          	EXTERN ___fs2schar
    81                          	EXTERN ___fs2schar_callee
    82                          	EXTERN ___fs2sint
    83                          	EXTERN ___fs2sint_callee
    84                          	EXTERN ___fs2slong
    85                          	EXTERN ___fs2slong_callee
    86                          	EXTERN ___fs2slonglong
    87                          	EXTERN ___fs2slonglong_callee
    88                          	EXTERN ___fs2uchar
    89                          	EXTERN ___fs2uchar_callee
    90                          	EXTERN ___fs2uint
    91                          	EXTERN ___fs2uint_callee
    92                          	EXTERN ___fs2ulong
    93                          	EXTERN ___fs2ulong_callee
    94                          	EXTERN ___fs2ulonglong
    95                          	EXTERN ___fs2ulonglong_callee
    96                          	EXTERN ___fsadd
    97                          	EXTERN ___fsadd_callee
    98                          	EXTERN ___fsdiv
    99                          	EXTERN ___fsdiv_callee
   100                          	EXTERN ___fseq
   101                          	EXTERN ___fseq_callee
   102                          	EXTERN ___fsgt
   103                          	EXTERN ___fsgt_callee
   104                          	EXTERN ___fslt
   105                          	EXTERN ___fslt_callee
   106                          	EXTERN ___fsmul
   107                          	EXTERN ___fsmul_callee
   108                          	EXTERN ___fsneq
   109                          	EXTERN ___fsneq_callee
   110                          	EXTERN ___fssub
   111                          	EXTERN ___fssub_callee
   112                          	EXTERN ___schar2fs
   113                          	EXTERN ___schar2fs_callee
   114                          	EXTERN ___sint2fs
   115                          	EXTERN ___sint2fs_callee
   116                          	EXTERN ___slong2fs
   117                          	EXTERN ___slong2fs_callee
   118                          	EXTERN ___slonglong2fs
   119                          	EXTERN ___slonglong2fs_callee
   120                          	EXTERN ___uchar2fs
   121                          	EXTERN ___uchar2fs_callee
   122                          	EXTERN ___uint2fs
   123                          	EXTERN ___uint2fs_callee
   124                          	EXTERN ___ulong2fs
   125                          	EXTERN ___ulong2fs_callee
   126                          	EXTERN ___ulonglong2fs
   127                          	EXTERN ___ulonglong2fs_callee
   128                          	EXTERN ____sdcc_2_copy_src_mhl_dst_deix
   129                          	EXTERN ____sdcc_2_copy_src_mhl_dst_bcix
   130                          	EXTERN ____sdcc_4_copy_src_mhl_dst_deix
   131                          	EXTERN ____sdcc_4_copy_src_mhl_dst_bcix
   132                          	EXTERN ____sdcc_4_copy_src_mhl_dst_mbc
   133                          	EXTERN ____sdcc_4_ldi_nosave_bc
   134                          	EXTERN ____sdcc_4_ldi_save_bc
   135                          	EXTERN ____sdcc_4_push_hlix
   136                          	EXTERN ____sdcc_4_push_mhl
   137                          	EXTERN ____sdcc_lib_setmem_hl
   138                          	EXTERN ____sdcc_ll_add_de_bc_hl
   139                          	EXTERN ____sdcc_ll_add_de_bc_hlix
   140                          	EXTERN ____sdcc_ll_add_de_hlix_bc
   141                          	EXTERN ____sdcc_ll_add_de_hlix_bcix
   142                          	EXTERN ____sdcc_ll_add_deix_bc_hl
   143                          	EXTERN ____sdcc_ll_add_deix_hlix
   144                          	EXTERN ____sdcc_ll_add_hlix_bc_deix
   145                          	EXTERN ____sdcc_ll_add_hlix_deix_bc
   146                          	EXTERN ____sdcc_ll_add_hlix_deix_bcix
   147                          	EXTERN ____sdcc_ll_asr_hlix_a
   148                          	EXTERN ____sdcc_ll_asr_mbc_a
   149                          	EXTERN ____sdcc_ll_copy_src_de_dst_hlix
   150                          	EXTERN ____sdcc_ll_copy_src_de_dst_hlsp
   151                          	EXTERN ____sdcc_ll_copy_src_deix_dst_hl
   152                          	EXTERN ____sdcc_ll_copy_src_deix_dst_hlix
   153                          	EXTERN ____sdcc_ll_copy_src_deixm_dst_hlsp
   154                          	EXTERN ____sdcc_ll_copy_src_desp_dst_hlsp
   155                          	EXTERN ____sdcc_ll_copy_src_hl_dst_de
   156                          	EXTERN ____sdcc_ll_copy_src_hlsp_dst_de
   157                          	EXTERN ____sdcc_ll_copy_src_hlsp_dst_deixm
   158                          	EXTERN ____sdcc_ll_lsl_hlix_a
   159                          	EXTERN ____sdcc_ll_lsl_mbc_a
   160                          	EXTERN ____sdcc_ll_lsr_hlix_a
   161                          	EXTERN ____sdcc_ll_lsr_mbc_a
   162                          	EXTERN ____sdcc_ll_push_hlix
   163                          	EXTERN ____sdcc_ll_push_mhl
   164                          	EXTERN ____sdcc_ll_sub_de_bc_hl
   165                          	EXTERN ____sdcc_ll_sub_de_bc_hlix
   166                          	EXTERN ____sdcc_ll_sub_de_hlix_bc
   167                          	EXTERN ____sdcc_ll_sub_de_hlix_bcix
   168                          	EXTERN ____sdcc_ll_sub_deix_bc_hl
   169                          	EXTERN ____sdcc_ll_sub_deix_hlix
   170                          	EXTERN ____sdcc_ll_sub_hlix_bc_deix
   171                          	EXTERN ____sdcc_ll_sub_hlix_deix_bc
   172                          	EXTERN ____sdcc_ll_sub_hlix_deix_bcix
   173                          	EXTERN ____sdcc_load_debc_deix
   174                          	EXTERN ____sdcc_load_dehl_deix
   175                          	EXTERN ____sdcc_load_debc_mhl
   176                          	EXTERN ____sdcc_load_hlde_mhl
   177                          	EXTERN ____sdcc_store_dehl_bcix
   178                          	EXTERN ____sdcc_store_debc_hlix
   179                          	EXTERN ____sdcc_store_debc_mhl
   180                          	EXTERN ____sdcc_cpu_pop_ei
   181                          	EXTERN ____sdcc_cpu_pop_ei_jp
   182                          	EXTERN ____sdcc_cpu_push_di
   183                          	EXTERN ____sdcc_outi
   184                          	EXTERN ____sdcc_outi_128
   185                          	EXTERN ____sdcc_outi_256
   186                          	EXTERN ____sdcc_ldi
   187                          	EXTERN ____sdcc_ldi_128
   188                          	EXTERN ____sdcc_ldi_256
   189                          	EXTERN ____sdcc_4_copy_srcd_hlix_dst_deix
   190                          	EXTERN ____sdcc_4_and_src_mbc_mhl_dst_deix
   191                          	EXTERN ____sdcc_4_or_src_mbc_mhl_dst_deix
   192                          	EXTERN ____sdcc_4_xor_src_mbc_mhl_dst_deix
   193                          	EXTERN ____sdcc_4_or_src_dehl_dst_bcix
   194                          	EXTERN ____sdcc_4_xor_src_dehl_dst_bcix
   195                          	EXTERN ____sdcc_4_and_src_dehl_dst_bcix
   196                          	EXTERN ____sdcc_4_xor_src_mbc_mhl_dst_debc
   197                          	EXTERN ____sdcc_4_or_src_mbc_mhl_dst_debc
   198                          	EXTERN ____sdcc_4_and_src_mbc_mhl_dst_debc
   199                          	EXTERN ____sdcc_4_cpl_src_mhl_dst_debc
   200                          	EXTERN ____sdcc_4_xor_src_debc_mhl_dst_debc
   201                          	EXTERN ____sdcc_4_or_src_debc_mhl_dst_debc
   202                          	EXTERN ____sdcc_4_and_src_debc_mhl_dst_debc
   203                          	EXTERN ____sdcc_4_and_src_debc_hlix_dst_debc
   204                          	EXTERN ____sdcc_4_or_src_debc_hlix_dst_debc
   205                          	EXTERN ____sdcc_4_xor_src_debc_hlix_dst_debc
   206                          
   207                          ;--------------------------------------------------------
   208                          ; Public variables in this module
   209                          ;--------------------------------------------------------
   210                          	GLOBAL _court_boundaries
   211                          	GLOBAL _x_projection
   212                          	GLOBAL _point_in_boundary
   213                          	GLOBAL _xy_in_boundary
   214                          ;--------------------------------------------------------
   215                          ; Externals used
   216                          ;--------------------------------------------------------
   217                          ;--------------------------------------------------------
   218                          ; special function registers
   219                          ;--------------------------------------------------------
   220                          ;--------------------------------------------------------
   221                          ; ram data
   222                          ;--------------------------------------------------------
   223                          	SECTION bss_compiler
   224                          ;--------------------------------------------------------
   225                          ; ram data
   226                          ;--------------------------------------------------------
   227                          
   228                          IF 0
   229                          
   230                          ; .area _INITIALIZED removed by z88dk
   231                          
   232                          
   233                          ENDIF
   234                          
   235                          ;--------------------------------------------------------
   236                          ; absolute external ram data
   237                          ;--------------------------------------------------------
   238                          	SECTION IGNORE
   239                          ;--------------------------------------------------------
   240                          ; global & static initialisations
   241                          ;--------------------------------------------------------
   242                          	SECTION code_crt_init
   243                          ;--------------------------------------------------------
   244                          ; Home
   245                          ;--------------------------------------------------------
   246                          	SECTION IGNORE
   247                          ;--------------------------------------------------------
   248                          ; code
   249                          ;--------------------------------------------------------
   250                          	SECTION BANK_8
   251                          ;court_dimensions.c:28: float dx = x - SCREEN_WIDTH / 2;
   252                          ;	---------------------------------
   253                          ; Function x_projection
   254                          ; ---------------------------------
   255                          _x_projection:
   256  0000  cd0000            	call	___sdcc_enter_ix
   257  0003  f5                	push	af
   258  0004  f5                	push	af
   259                          ;court_dimensions.c:30: float px = dx * dy / VANISHING_POINT;
   260  0005  210000            	ld	hl,0x4320
   261  0008  e5                	push	hl
   262  0009  210000            	ld	hl,0x0000
   263  000c  e5                	push	hl
   264  000d  210000            	ld	hl,4
   265  0010  cd0000            	call	____sdcc_4_push_hlix
   266  0013  cd0000            	call	___fssub_callee
   267  0016  e3                	ex	(sp), hl
   268  0017  dd7300            	ld	(ix-2),e
   269  001a  dd7200            	ld	(ix-1),d
   270                          ;court_dimensions.c:31: return x - px;
   271  001d  210000            	ld	hl,8
   272  0020  cd0000            	call	____sdcc_4_push_hlix
   273  0023  210000            	ld	hl,0x4380
   274  0026  e5                	push	hl
   275  0027  210000            	ld	hl,0x0000
   276  002a  e5                	push	hl
   277  002b  cd0000            	call	___fssub_callee
   278                          ;court_dimensions.c:32: }
   279  002e  d5                	push	de
   280  002f  e5                	push	hl
   281  0030  210000            	ld	hl,-4
   282  0033  cd0000            	call	____sdcc_4_push_hlix
   283  0036  cd0000            	call	___fsmul_callee
   284  0039  010000            	ld	bc,0x43fb
   285  003c  c5                	push	bc
   286  003d  010000            	ld	bc,0x0000
   287  0040  c5                	push	bc
   288  0041  d5                	push	de
   289  0042  e5                	push	hl
   290  0043  cd0000            	call	___fsdiv_callee
   291                          ;court_dimensions.c:33:
   292  0046  d5                	push	de
   293  0047  e5                	push	hl
   294  0048  210400            	ld	hl,4
   295  004b  cd0000            	call	____sdcc_4_push_hlix
   296  004e  cd0000            	call	___fssub
   297                          ;court_dimensions.c:34: bool point_in_boundary(const Point *point, const Boundary *boundary)
   298  0051  ddf9              	ld	sp,ix
   299  0053  dde1              	pop	ix
   300  0055  c9                	ret
   301                          	SECTION rodata_compiler
   302                          _court_boundaries:
   303  0000  f1ff              	DEFW +0xfff1
   304  0002  4f01              	DEFW +0x014f
   305  0004  4a00              	DEFW +0x004a
   306  0006  9f00              	DEFW +0x009f
   307  0008  f1ff              	DEFW +0xfff1
   308  000a  4f01              	DEFW +0x014f
   309  000c  a100              	DEFW +0x00a1
   310  000e  fd00              	DEFW +0x00fd
   311  0010  3c00              	DEFW +0x003c
   312  0012  0501              	DEFW +0x0105
   313  0014  6400              	DEFW +0x0064
   314  0016  9e00              	DEFW +0x009e
   315  0018  3c00              	DEFW +0x003c
   316  001a  0501              	DEFW +0x0105
   317  001c  9f00              	DEFW +0x009f
   318  001e  dc00              	DEFW +0x00dc
   319  0020  3c00              	DEFW +0x003c
   320  0022  a300              	DEFW +0x00a3
   321  0024  8200              	DEFW +0x0082
   322  0026  9e00              	DEFW +0x009e
   323  0028  9f00              	DEFW +0x009f
   324  002a  0501              	DEFW +0x0105
   325  002c  a200              	DEFW +0x00a2
   326  002e  be00              	DEFW +0x00be
   327  0030  9f00              	DEFW +0x009f
   328  0032  0501              	DEFW +0x0105
   329  0034  8200              	DEFW +0x0082
   330  0036  9e00              	DEFW +0x009e
   331  0038  3c00              	DEFW +0x003c
   332  003a  a300              	DEFW +0x00a3
   333  003c  a200              	DEFW +0x00a2
   334  003e  be00              	DEFW +0x00be
   335                          	SECTION BANK_8
   336                          ;court_dimensions.c:36: return point->x >= boundary->left && point->x <= boundary->right && point->y >= boundary->top && point->y <= boundary->bottom;
   337                          ;	---------------------------------
   338                          ; Function point_in_boundary
   339                          ; ---------------------------------
   340                          _point_in_boundary:
   341  0056  cd0000            	call	___sdcc_enter_ix
   342  0059  21faff            	ld	hl, -6
   343  005c  39                	add	hl, sp
   344  005d  f9                	ld	sp, hl
   345                          ;court_dimensions.c:38:
   346  005e  dd7e04            	ld	a,(ix+4)
   347  0061  dd77fa            	ld	(ix-6),a
   348  0064  dd7e05            	ld	a,(ix+5)
   349  0067  dd77fb            	ld	(ix-5),a
   350  006a  d1                	pop	de
   351  006b  d5                	push	de
   352  006c  210200            	ld	hl,2
   353  006f  39                	add	hl, sp
   354  0070  eb                	ex	de, hl
   355  0071  cd0000            	call	____sdcc_4_ldi_nosave_bc
   356  0074  dd6e06            	ld	l,(ix+6)
   357  0077  dd6607            	ld	h,(ix+7)
   358  007a  5e                	ld	e,(hl)
   359  007b  23                	inc	hl
   360  007c  56                	ld	d,(hl)
   361  007d  2b                	dec	hl
   362  007e  e5                	push	hl
   363  007f  d5                	push	de
   364  0080  cd0000            	call	___sint2fs_callee
   365  0083  d5                	push	de
   366  0084  e5                	push	hl
   367  0085  21fcff            	ld	hl,-4
   368  0088  cd0000            	call	____sdcc_4_push_hlix
   369  008b  cd0000            	call	___fslt_callee
   370  008e  c1                	pop	bc
   371  008f  cb45              	bit	0, l
   372  0091  c20801            	jp	NZ, l_point_in_boundary_00103
   373  0094  69                	ld	l, c
   374  0095  60                	ld	h, b
   375  0096  23                	inc	hl
   376  0097  23                	inc	hl
   377  0098  5e                	ld	e, (hl)
   378  0099  23                	inc	hl
   379  009a  56                	ld	d, (hl)
   380  009b  c5                	push	bc
   381  009c  d5                	push	de
   382  009d  cd0000            	call	___sint2fs_callee
   383  00a0  e5                	push	hl
   384  00a1  dd6efe            	ld	l,(ix-2)
   385  00a4  dd66ff            	ld	h,(ix-1)
   386  00a7  e3                	ex	(sp), hl
   387  00a8  e5                	push	hl
   388  00a9  dd6efc            	ld	l,(ix-4)
   389  00ac  dd66fd            	ld	h,(ix-3)
   390  00af  e3                	ex	(sp), hl
   391  00b0  d5                	push	de
   392  00b1  e5                	push	hl
   393  00b2  cd0000            	call	___fslt_callee
   394  00b5  c1                	pop	bc
   395  00b6  cb45              	bit	0, l
   396  00b8  204e              	jr	NZ,l_point_in_boundary_00103
   397  00ba  d1                	pop	de
   398  00bb  d5                	push	de
   399  00bc  c5                	push	bc
   400  00bd  210400            	ld	hl,4
   401  00c0  39                	add	hl, sp
   402  00c1  eb                	ex	de, hl
   403  00c2  010400            	ld	bc,0x0004
   404  00c5  09                	add	hl, bc
   405  00c6  cd0000            	call	____sdcc_4_ldi_nosave_bc
   406  00c9  c1                	pop	bc
   407  00ca  210400            	ld	hl,4
   408  00cd  09                	add	hl,bc
   409  00ce  5e                	ld	e, (hl)
   410  00cf  23                	inc	hl
   411  00d0  56                	ld	d, (hl)
   412  00d1  c5                	push	bc
   413  00d2  d5                	push	de
   414  00d3  cd0000            	call	___sint2fs_callee
   415  00d6  d5                	push	de
   416  00d7  e5                	push	hl
   417  00d8  21fcff            	ld	hl,-4
   418  00db  cd0000            	call	____sdcc_4_push_hlix
   419  00de  cd0000            	call	___fslt_callee
   420  00e1  c1                	pop	bc
   421  00e2  cb45              	bit	0, l
   422  00e4  2022              	jr	NZ,l_point_in_boundary_00103
   423  00e6  210600            	ld	hl,6
   424  00e9  09                	add	hl, bc
   425  00ea  4e                	ld	c, (hl)
   426  00eb  23                	inc	hl
   427  00ec  46                	ld	b, (hl)
   428  00ed  c5                	push	bc
   429  00ee  cd0000            	call	___sint2fs_callee
   430  00f1  dd4efe            	ld	c,(ix-2)
   431  00f4  dd46ff            	ld	b,(ix-1)
   432  00f7  c5                	push	bc
   433  00f8  dd4efc            	ld	c,(ix-4)
   434  00fb  dd46fd            	ld	b,(ix-3)
   435  00fe  c5                	push	bc
   436  00ff  d5                	push	de
   437  0100  e5                	push	hl
   438  0101  cd0000            	call	___fslt_callee
   439  0104  cb45              	bit	0, l
   440  0106  2804              	jr	Z,l_point_in_boundary_00104
   441                          l_point_in_boundary_00103:
   442  0108  2e00              	ld	l,0x00
   443  010a  1802              	jr	l_point_in_boundary_00105
   444                          l_point_in_boundary_00104:
   445  010c  2e01              	ld	l,0x01
   446                          l_point_in_boundary_00105:
   447                          ;court_dimensions.c:39: bool xy_in_boundary(int16_t x, int16_t y, const Boundary *boundary)
   448  010e  ddf9              	ld	sp, ix
   449  0110  dde1              	pop	ix
   450  0112  c9                	ret
   451                          ;court_dimensions.c:41: return x >= boundary->left && x <= boundary->right && y >= boundary->top && y <= boundary->bottom;
   452                          ;	---------------------------------
   453                          ; Function xy_in_boundary
   454                          ; ---------------------------------
   455                          _xy_in_boundary:
   456  0113  cd0000            	call	___sdcc_enter_ix
   457                          ;court_dimensions.c:43: ERROR: no line number 43 in file court_dimensions.c
   458  0116  dd6e08            	ld	l,(ix+8)
   459  0119  dd6609            	ld	h,(ix+9)
   460  011c  5e                	ld	e,(hl)
   461  011d  4d                	ld	c,l
   462  011e  44                	ld	b,h
   463  011f  23                	inc	hl
   464  0120  56                	ld	d, (hl)
   465  0121  dd7e04            	ld	a,(ix+4)
   466  0124  93                	sub	a, e
   467  0125  dd7e05            	ld	a,(ix+5)
   468  0128  9a                	sbc	a, d
   469  0129  e22e01            	jp	PO, l_xy_in_boundary_00125
   470  012c  ee80              	xor	a,0x80
   471                          l_xy_in_boundary_00125:
   472  012e  fa7401            	jp	M, l_xy_in_boundary_00103
   473  0131  69                	ld	l, c
   474  0132  60                	ld	h, b
   475  0133  23                	inc	hl
   476  0134  23                	inc	hl
   477  0135  7e                	ld	a,(hl)
   478  0136  23                	inc	hl
   479  0137  56                	ld	d,(hl)
   480  0138  dd9604            	sub	a,(ix+4)
   481  013b  7a                	ld	a, d
   482  013c  dd9e05            	sbc	a,(ix+5)
   483  013f  e24401            	jp	PO, l_xy_in_boundary_00126
   484  0142  ee80              	xor	a,0x80
   485                          l_xy_in_boundary_00126:
   486  0144  fa7401            	jp	M, l_xy_in_boundary_00103
   487  0147  210400            	ld	hl,4
   488  014a  09                	add	hl,bc
   489  014b  5e                	ld	e, (hl)
   490  014c  23                	inc	hl
   491  014d  56                	ld	d, (hl)
   492  014e  dd7e06            	ld	a,(ix+6)
   493  0151  93                	sub	a, e
   494  0152  dd7e07            	ld	a,(ix+7)
   495  0155  9a                	sbc	a, d
   496  0156  e25b01            	jp	PO, l_xy_in_boundary_00127
   497  0159  ee80              	xor	a,0x80
   498                          l_xy_in_boundary_00127:
   499  015b  fa7401            	jp	M, l_xy_in_boundary_00103
   500  015e  210600            	ld	hl,6
   501  0161  09                	add	hl, bc
   502  0162  7e                	ld	a,(hl)
   503  0163  23                	inc	hl
   504  0164  46                	ld	b,(hl)
   505  0165  dd9606            	sub	a,(ix+6)
   506  0168  78                	ld	a, b
   507  0169  dd9e07            	sbc	a,(ix+7)
   508  016c  e27101            	jp	PO, l_xy_in_boundary_00128
   509  016f  ee80              	xor	a,0x80
   510                          l_xy_in_boundary_00128:
   511  0171  f27801            	jp	P, l_xy_in_boundary_00104
   512                          l_xy_in_boundary_00103:
   513  0174  2e00              	ld	l,0x00
   514  0176  1802              	jr	l_xy_in_boundary_00105
   515                          l_xy_in_boundary_00104:
   516  0178  2e01              	ld	l,0x01
   517                          l_xy_in_boundary_00105:
   518                          ;court_dimensions.c:44: ERROR: no line number 44 in file court_dimensions.c
   519  017a  dde1              	pop	ix
   520  017c  c9                	ret
   521                          	SECTION IGNORE
   522                          
