/tmp/tmpn1rQWYq9.asm:
     1                          MODULE game_loop_c
     2                          LINE 0, "game_loop.c"
game_loop.c:
                                
     1                          ;--------------------------------------------------------
     2                          ; File Created by SDCC : free open source ISO C Compiler
     3                          ; Version 4.3.0 #14210 (Mac OS X ppc)
     4                          ;--------------------------------------------------------
     5                          	.zxn
     6                          ; Processed by Z88DK
     7                          ;--------------------------------------------------------
     8                          
     9                          	EXTERN __divschar
    10                          	EXTERN __divschar_callee
    11                          	EXTERN __divsint
    12                          	EXTERN __divsint_callee
    13                          	EXTERN __divslong
    14                          	EXTERN __divslong_callee
    15                          	EXTERN __divslonglong
    16                          	EXTERN __divslonglong_callee
    17                          	EXTERN __divsuchar
    18                          	EXTERN __divsuchar_callee
    19                          	EXTERN __divuchar
    20                          	EXTERN __divuchar_callee
    21                          	EXTERN __divuint
    22                          	EXTERN __divuint_callee
    23                          	EXTERN __divulong
    24                          	EXTERN __divulong_callee
    25                          	EXTERN __divulonglong
    26                          	EXTERN __divulonglong_callee
    27                          	EXTERN __divuschar
    28                          	EXTERN __divuschar_callee
    29                          	EXTERN __modschar
    30                          	EXTERN __modschar_callee
    31                          	EXTERN __modsint
    32                          	EXTERN __modsint_callee
    33                          	EXTERN __modslong
    34                          	EXTERN __modslong_callee
    35                          	EXTERN __modslonglong
    36                          	EXTERN __modslonglong_callee
    37                          	EXTERN __modsuchar
    38                          	EXTERN __modsuchar_callee
    39                          	EXTERN __moduchar
    40                          	EXTERN __moduchar_callee
    41                          	EXTERN __moduint
    42                          	EXTERN __moduint_callee
    43                          	EXTERN __modulong
    44                          	EXTERN __modulong_callee
    45                          	EXTERN __modulonglong
    46                          	EXTERN __modulonglong_callee
    47                          	EXTERN __moduschar
    48                          	EXTERN __moduschar_callee
    49                          	EXTERN __mulint
    50                          	EXTERN __mulint_callee
    51                          	EXTERN __mullong
    52                          	EXTERN __mullong_callee
    53                          	EXTERN __mullonglong
    54                          	EXTERN __mullonglong_callee
    55                          	EXTERN __mulschar
    56                          	EXTERN __mulschar_callee
    57                          	EXTERN __mulsuchar
    58                          	EXTERN __mulsuchar_callee
    59                          	EXTERN __muluchar
    60                          	EXTERN __muluchar_callee
    61                          	EXTERN __muluschar
    62                          	EXTERN __muluschar_callee
    63                          	EXTERN __rlslonglong
    64                          	EXTERN __rlslonglong_callee
    65                          	EXTERN __rlulonglong
    66                          	EXTERN __rlulonglong_callee
    67                          	EXTERN __rrslonglong
    68                          	EXTERN __rrslonglong_callee
    69                          	EXTERN __rrulonglong
    70                          	EXTERN __rrulonglong_callee
    71                          	EXTERN ___mulsint2slong
    72                          	EXTERN ___mulsint2slong_callee
    73                          	EXTERN ___muluint2ulong
    74                          	EXTERN ___muluint2ulong_callee
    75                          	EXTERN ___sdcc_call_hl
    76                          	EXTERN ___sdcc_call_iy
    77                          	EXTERN ___sdcc_enter_ix
    78                          	EXTERN banked_call
    79                          	EXTERN _banked_ret
    80                          	EXTERN ___fs2schar
    81                          	EXTERN ___fs2schar_callee
    82                          	EXTERN ___fs2sint
    83                          	EXTERN ___fs2sint_callee
    84                          	EXTERN ___fs2slong
    85                          	EXTERN ___fs2slong_callee
    86                          	EXTERN ___fs2slonglong
    87                          	EXTERN ___fs2slonglong_callee
    88                          	EXTERN ___fs2uchar
    89                          	EXTERN ___fs2uchar_callee
    90                          	EXTERN ___fs2uint
    91                          	EXTERN ___fs2uint_callee
    92                          	EXTERN ___fs2ulong
    93                          	EXTERN ___fs2ulong_callee
    94                          	EXTERN ___fs2ulonglong
    95                          	EXTERN ___fs2ulonglong_callee
    96                          	EXTERN ___fsadd
    97                          	EXTERN ___fsadd_callee
    98                          	EXTERN ___fsdiv
    99                          	EXTERN ___fsdiv_callee
   100                          	EXTERN ___fseq
   101                          	EXTERN ___fseq_callee
   102                          	EXTERN ___fsgt
   103                          	EXTERN ___fsgt_callee
   104                          	EXTERN ___fslt
   105                          	EXTERN ___fslt_callee
   106                          	EXTERN ___fsmul
   107                          	EXTERN ___fsmul_callee
   108                          	EXTERN ___fsneq
   109                          	EXTERN ___fsneq_callee
   110                          	EXTERN ___fssub
   111                          	EXTERN ___fssub_callee
   112                          	EXTERN ___schar2fs
   113                          	EXTERN ___schar2fs_callee
   114                          	EXTERN ___sint2fs
   115                          	EXTERN ___sint2fs_callee
   116                          	EXTERN ___slong2fs
   117                          	EXTERN ___slong2fs_callee
   118                          	EXTERN ___slonglong2fs
   119                          	EXTERN ___slonglong2fs_callee
   120                          	EXTERN ___uchar2fs
   121                          	EXTERN ___uchar2fs_callee
   122                          	EXTERN ___uint2fs
   123                          	EXTERN ___uint2fs_callee
   124                          	EXTERN ___ulong2fs
   125                          	EXTERN ___ulong2fs_callee
   126                          	EXTERN ___ulonglong2fs
   127                          	EXTERN ___ulonglong2fs_callee
   128                          	EXTERN ____sdcc_2_copy_src_mhl_dst_deix
   129                          	EXTERN ____sdcc_2_copy_src_mhl_dst_bcix
   130                          	EXTERN ____sdcc_4_copy_src_mhl_dst_deix
   131                          	EXTERN ____sdcc_4_copy_src_mhl_dst_bcix
   132                          	EXTERN ____sdcc_4_copy_src_mhl_dst_mbc
   133                          	EXTERN ____sdcc_4_ldi_nosave_bc
   134                          	EXTERN ____sdcc_4_ldi_save_bc
   135                          	EXTERN ____sdcc_4_push_hlix
   136                          	EXTERN ____sdcc_4_push_mhl
   137                          	EXTERN ____sdcc_lib_setmem_hl
   138                          	EXTERN ____sdcc_ll_add_de_bc_hl
   139                          	EXTERN ____sdcc_ll_add_de_bc_hlix
   140                          	EXTERN ____sdcc_ll_add_de_hlix_bc
   141                          	EXTERN ____sdcc_ll_add_de_hlix_bcix
   142                          	EXTERN ____sdcc_ll_add_deix_bc_hl
   143                          	EXTERN ____sdcc_ll_add_deix_hlix
   144                          	EXTERN ____sdcc_ll_add_hlix_bc_deix
   145                          	EXTERN ____sdcc_ll_add_hlix_deix_bc
   146                          	EXTERN ____sdcc_ll_add_hlix_deix_bcix
   147                          	EXTERN ____sdcc_ll_asr_hlix_a
   148                          	EXTERN ____sdcc_ll_asr_mbc_a
   149                          	EXTERN ____sdcc_ll_copy_src_de_dst_hlix
   150                          	EXTERN ____sdcc_ll_copy_src_de_dst_hlsp
   151                          	EXTERN ____sdcc_ll_copy_src_deix_dst_hl
   152                          	EXTERN ____sdcc_ll_copy_src_deix_dst_hlix
   153                          	EXTERN ____sdcc_ll_copy_src_deixm_dst_hlsp
   154                          	EXTERN ____sdcc_ll_copy_src_desp_dst_hlsp
   155                          	EXTERN ____sdcc_ll_copy_src_hl_dst_de
   156                          	EXTERN ____sdcc_ll_copy_src_hlsp_dst_de
   157                          	EXTERN ____sdcc_ll_copy_src_hlsp_dst_deixm
   158                          	EXTERN ____sdcc_ll_lsl_hlix_a
   159                          	EXTERN ____sdcc_ll_lsl_mbc_a
   160                          	EXTERN ____sdcc_ll_lsr_hlix_a
   161                          	EXTERN ____sdcc_ll_lsr_mbc_a
   162                          	EXTERN ____sdcc_ll_push_hlix
   163                          	EXTERN ____sdcc_ll_push_mhl
   164                          	EXTERN ____sdcc_ll_sub_de_bc_hl
   165                          	EXTERN ____sdcc_ll_sub_de_bc_hlix
   166                          	EXTERN ____sdcc_ll_sub_de_hlix_bc
   167                          	EXTERN ____sdcc_ll_sub_de_hlix_bcix
   168                          	EXTERN ____sdcc_ll_sub_deix_bc_hl
   169                          	EXTERN ____sdcc_ll_sub_deix_hlix
   170                          	EXTERN ____sdcc_ll_sub_hlix_bc_deix
   171                          	EXTERN ____sdcc_ll_sub_hlix_deix_bc
   172                          	EXTERN ____sdcc_ll_sub_hlix_deix_bcix
   173                          	EXTERN ____sdcc_load_debc_deix
   174                          	EXTERN ____sdcc_load_dehl_deix
   175                          	EXTERN ____sdcc_load_debc_mhl
   176                          	EXTERN ____sdcc_load_hlde_mhl
   177                          	EXTERN ____sdcc_store_dehl_bcix
   178                          	EXTERN ____sdcc_store_debc_hlix
   179                          	EXTERN ____sdcc_store_debc_mhl
   180                          	EXTERN ____sdcc_cpu_pop_ei
   181                          	EXTERN ____sdcc_cpu_pop_ei_jp
   182                          	EXTERN ____sdcc_cpu_push_di
   183                          	EXTERN ____sdcc_outi
   184                          	EXTERN ____sdcc_outi_128
   185                          	EXTERN ____sdcc_outi_256
   186                          	EXTERN ____sdcc_ldi
   187                          	EXTERN ____sdcc_ldi_128
   188                          	EXTERN ____sdcc_ldi_256
   189                          	EXTERN ____sdcc_4_copy_srcd_hlix_dst_deix
   190                          	EXTERN ____sdcc_4_and_src_mbc_mhl_dst_deix
   191                          	EXTERN ____sdcc_4_or_src_mbc_mhl_dst_deix
   192                          	EXTERN ____sdcc_4_xor_src_mbc_mhl_dst_deix
   193                          	EXTERN ____sdcc_4_or_src_dehl_dst_bcix
   194                          	EXTERN ____sdcc_4_xor_src_dehl_dst_bcix
   195                          	EXTERN ____sdcc_4_and_src_dehl_dst_bcix
   196                          	EXTERN ____sdcc_4_xor_src_mbc_mhl_dst_debc
   197                          	EXTERN ____sdcc_4_or_src_mbc_mhl_dst_debc
   198                          	EXTERN ____sdcc_4_and_src_mbc_mhl_dst_debc
   199                          	EXTERN ____sdcc_4_cpl_src_mhl_dst_debc
   200                          	EXTERN ____sdcc_4_xor_src_debc_mhl_dst_debc
   201                          	EXTERN ____sdcc_4_or_src_debc_mhl_dst_debc
   202                          	EXTERN ____sdcc_4_and_src_debc_mhl_dst_debc
   203                          	EXTERN ____sdcc_4_and_src_debc_hlix_dst_debc
   204                          	EXTERN ____sdcc_4_or_src_debc_hlix_dst_debc
   205                          	EXTERN ____sdcc_4_xor_src_debc_hlix_dst_debc
   206                          
   207                          ;--------------------------------------------------------
   208                          ; Public variables in this module
   209                          ;--------------------------------------------------------
   210                          	GLOBAL _next_iteration_delta
   211                          	GLOBAL _game_frame_speed
   212                          	GLOBAL _game_loop
   213                          ;--------------------------------------------------------
   214                          ; Externals used
   215                          ;--------------------------------------------------------
   216                          	GLOBAL __assert
   217                          	GLOBAL _hide_balloon
   218                          	GLOBAL _draw_balloon_with_text
   219                          	GLOBAL _reset_ticks
   220                          	GLOBAL _wait_for_ticks
   221                          	GLOBAL _hide_ball
   222                          	GLOBAL _update_screen
   223                          	GLOBAL _update_messages
   224                          	GLOBAL _send_message
   225                          	GLOBAL _break_key_pressed
   226                          	GLOBAL _set_sprites_visibility
   227                          	GLOBAL _video_timing
   228                          	GLOBAL _init_layer2
   229                          	GLOBAL _init_hardware
   230                          	GLOBAL _valid_area
   231                          	GLOBAL _service_area
   232                          	GLOBAL _get_serving_player
   233                          	GLOBAL _is_ad_service
   234                          	GLOBAL _start_match
   235                          	GLOBAL _event_player_touch
   236                          	GLOBAL _event_net_touched
   237                          	GLOBAL _event_player_hit
   238                          	GLOBAL _event_ball_bounced
   239                          	GLOBAL _update_entities
   240                          	GLOBAL _closest_type_of_hit
   241                          	GLOBAL _ball_at_reach
   242                          	GLOBAL _set_player_status
   243                          	GLOBAL _get_player
   244                          	GLOBAL _update_players
   245                          	GLOBAL _float_to_string
   246                          	GLOBAL _xy_in_boundary
   247                          	GLOBAL _point_in_boundary
   248                          	GLOBAL _x_projection
   249                          	GLOBAL _restart_computer_controls
   250                          	GLOBAL _read_computer_control
   251                          	GLOBAL _init_controls
   252                          	GLOBAL _diplay_profile
   253                          	GLOBAL _in_mouse_kempston_wheel_delta
   254                          	GLOBAL _in_mouse_kempston_wheel
   255                          	GLOBAL _in_mouse_kempston_callee
   256                          	GLOBAL _in_mouse_kempston
   257                          	GLOBAL _in_mouse_kempston_setpos_callee
   258                          	GLOBAL _in_mouse_kempston_setpos
   259                          	GLOBAL _in_mouse_kempston_reset
   260                          	GLOBAL _in_mouse_kempston_init
   261                          	GLOBAL _in_mouse_amx_wheel_delta
   262                          	GLOBAL _in_mouse_amx_wheel
   263                          	GLOBAL _in_mouse_amx_callee
   264                          	GLOBAL _in_mouse_amx
   265                          	GLOBAL _in_mouse_amx_setpos_callee
   266                          	GLOBAL _in_mouse_amx_setpos
   267                          	GLOBAL _in_mouse_amx_reset
   268                          	GLOBAL _in_mouse_amx_init_callee
   269                          	GLOBAL _in_mouse_amx_init
   270                          	GLOBAL _in_stick_sinclair2
   271                          	GLOBAL _in_stick_sinclair1
   272                          	GLOBAL _in_stick_kempston
   273                          	GLOBAL _in_stick_fuller
   274                          	GLOBAL _in_stick_cursor
   275                          	GLOBAL _in_stick_keyboard_fastcall
   276                          	GLOBAL _in_stick_keyboard
   277                          	GLOBAL _in_wait_nokey
   278                          	GLOBAL _in_wait_key
   279                          	GLOBAL _in_test_key
   280                          	GLOBAL _in_pause_fastcall
   281                          	GLOBAL _in_pause
   282                          	GLOBAL _in_key_scancode_fastcall
   283                          	GLOBAL _in_key_scancode
   284                          	GLOBAL _in_key_pressed_fastcall
   285                          	GLOBAL _in_key_pressed
   286                          	GLOBAL _in_inkey
   287                          	GLOBAL _ball_future_x_and_height
   288                          	GLOBAL _set_ball_velocity_net_height
   289                          	GLOBAL _set_lob_ball_velocity
   290                          	GLOBAL _update_ball
   291                          	GLOBAL _intrinsic_swap_word_32_fastcall
   292                          	GLOBAL _intrinsic_swap_word_32
   293                          	GLOBAL _intrinsic_swap_endian_32_fastcall
   294                          	GLOBAL _intrinsic_swap_endian_32
   295                          	GLOBAL _intrinsic_swap_endian_16_fastcall
   296                          	GLOBAL _intrinsic_swap_endian_16
   297                          	GLOBAL _intrinsic_return_de
   298                          	GLOBAL _intrinsic_return_bc
   299                          	GLOBAL _intrinsic_exx
   300                          	GLOBAL _intrinsic_ex_de_hl
   301                          	GLOBAL _intrinsic_nop
   302                          	GLOBAL _intrinsic_im_2
   303                          	GLOBAL _intrinsic_im_1
   304                          	GLOBAL _intrinsic_im_0
   305                          	GLOBAL _intrinsic_retn
   306                          	GLOBAL _intrinsic_reti
   307                          	GLOBAL _intrinsic_halt
   308                          	GLOBAL _intrinsic_ei
   309                          	GLOBAL _intrinsic_di
   310                          	GLOBAL _intrinsic_stub
   311                          	GLOBAL _intrinsic_ini
   312                          	GLOBAL _intrinsic_outi
   313                          	GLOBAL _intrinsic_ldi
   314                          	GLOBAL _game_state
   315                          	GLOBAL _match_type
   316                          	GLOBAL _score
   317                          	GLOBAL _player_bottom
   318                          	GLOBAL _player_top
   319                          	GLOBAL _game_settings
   320                          	GLOBAL _ppponent_profile
   321                          	GLOBAL _ball
   322                          	GLOBAL _court_boundaries
   323                          ;--------------------------------------------------------
   324                          ; special function registers
   325                          ;--------------------------------------------------------
   326                          ;--------------------------------------------------------
   327                          ; ram data
   328                          ;--------------------------------------------------------
   329                          	SECTION bss_compiler
   330                          _game_frame_speed:
   331  0000  00000000          	DEFS 4
   332                          ;--------------------------------------------------------
   333                          ; ram data
   334                          ;--------------------------------------------------------
   335                          
   336                          IF 0
   337                          
   338                          ; .area _INITIALIZED removed by z88dk
   339                          
   340                          _next_iteration_delta:
   341                          	DEFS 4
   342                          _game_speeds:
   343                          	DEFS 12
   344                          
   345                          ENDIF
   346                          
   347                          ;--------------------------------------------------------
   348                          ; absolute external ram data
   349                          ;--------------------------------------------------------
   350                          	SECTION IGNORE
   351                          ;--------------------------------------------------------
   352                          ; global & static initialisations
   353                          ;--------------------------------------------------------
   354                          	SECTION code_crt_init
   355                          ;--------------------------------------------------------
   356                          ; Home
   357                          ;--------------------------------------------------------
   358                          	SECTION IGNORE
   359                          ;--------------------------------------------------------
   360                          ; code
   361                          ;--------------------------------------------------------
   362                          	SECTION code_compiler
   363                          ;game_loop.c:25: static bool confirm_exit(void)
   364                          ;	---------------------------------
   365                          ; Function confirm_exit
   366                          ; ---------------------------------
   367                          _confirm_exit:
   368                          ;game_loop.c:28: in_wait_nokey();
   369  0000  cd0000            	call	_in_wait_nokey
   370                          ;game_loop.c:30: draw_balloon_with_text("PRESS BREAK AGAIN TO EXIT");
   371  0003  210000            	ld	hl,___str_0
   372  0006  e5                	push	hl
   373  0007  cd0000            	call	_draw_balloon_with_text
   374  000a  f1                	pop	af
   375                          ;game_loop.c:33: in_wait_key();
   376  000b  cd0000            	call	_in_wait_key
   377                          ;game_loop.c:35: hide_balloon();
   378  000e  cd0000            	call	_hide_balloon
   379                          ;game_loop.c:36: reset_ticks();
   380  0011  cd0000            	call	_reset_ticks
   381                          ;game_loop.c:38: return break_key_pressed();
   382                          ;game_loop.c:39: }
   383  0014  c30000            	jp	_break_key_pressed
   384                          	SECTION rodata_compiler
   385                          ___str_0:
   386  0000  5052455353204252  	DEFM "PRESS BREAK AGAIN TO EXIT"
              45414b2041474149  
              0020000020000049  
              54                
   387  0019  00                	DEFB 0x00
   388                          	SECTION code_compiler
   389                          ;game_loop.c:41: void game_loop(void)
   390                          ;	---------------------------------
   391                          ; Function game_loop
   392                          ; ---------------------------------
   393                          _game_loop:
   394  0017  cd0000            	call	___sdcc_enter_ix
   395  001a  f5                	push	af
   396  001b  f5                	push	af
   397                          ;game_loop.c:45: game_frame_speed = game_speeds[game_settings.speed] * 50.f / video_timing();
   398  001c  010400            	ld	bc,_game_speeds+0
   399  001f  3a1900            	ld	a,(_game_settings + 25)
   400  0022  2600              	ld	h,0x00
   401  0024  6f                	ld	l, a
   402  0025  29                	add	hl, hl
   403  0026  29                	add	hl, hl
   404  0027  09                	add	hl, bc
   405  0028  cd0000            	call	____sdcc_load_debc_mhl
   406  002b  d5                	push	de
   407  002c  c5                	push	bc
   408  002d  214842            	ld	hl,0x4248
   409  0030  e5                	push	hl
   410  0031  210000            	ld	hl,0x0000
   411  0034  e5                	push	hl
   412  0035  cd0000            	call	___fsmul_callee
   413  0038  e3                	ex	(sp), hl
   414  0039  dd73fe            	ld	(ix-2),e
   415  003c  dd72ff            	ld	(ix-1),d
   416  003f  cd0000            	call	_video_timing
   417  0042  7d                	ld	a, l
   418  0043  f5                	push	af
   419  0044  33                	inc	sp
   420  0045  cd0000            	call	___uchar2fs_callee
   421  0048  d5                	push	de
   422  0049  e5                	push	hl
   423  004a  21fcff            	ld	hl,-4
   424  004d  cd0000            	call	____sdcc_4_push_hlix
   425  0050  cd0000            	call	___fsdiv_callee
   426  0053  220000            	ld	(_game_frame_speed),hl
   427  0056  eb                	ex	de,hl
   428  0057  220200            	ld	(_game_frame_speed + 2), hl
   429                          ;game_loop.c:46: next_iteration_delta = game_frame_speed;
   430  005a  210000            	ld	hl,_game_frame_speed
   431  005d  7e                	ld	a,(hl)
   432  005e  eb                	ex	de,hl
   433  005f  210000            	ld	hl,_next_iteration_delta
   434  0062  77                	ld	(hl), a
   435  0063  23                	inc	hl
   436  0064  13                	inc	de
   437  0065  1a                	ld	a, (de)
   438  0066  77                	ld	(hl), a
   439  0067  23                	inc	hl
   440  0068  13                	inc	de
   441  0069  1a                	ld	a, (de)
   442  006a  77                	ld	(hl), a
   443  006b  23                	inc	hl
   444  006c  13                	inc	de
   445  006d  1a                	ld	a, (de)
   446  006e  77                	ld	(hl), a
   447                          ;game_loop.c:49: start_match();
   448  006f  cd0000            	call	_start_match
   449                          ;game_loop.c:51: reset_ticks();
   450  0072  cd0000            	call	_reset_ticks
   451                          ;game_loop.c:53: while (game_state.point_status != POS_END_MATCH)
   452                          l_game_loop_00104:
   453  0075  3a0000            	ld	a,(_game_state)
   454  0078  d605              	sub	a,0x05
   455  007a  2835              	jr	Z,l_game_loop_00107
   456                          ;game_loop.c:55: if (break_key_pressed() && confirm_exit())
   457  007c  cd0000            	call	_break_key_pressed
   458  007f  cb45              	bit	0, l
   459  0081  2807              	jr	Z,l_game_loop_00102
   460  0083  cd0000            	call	_confirm_exit
   461  0086  cb45              	bit	0, l
   462  0088  2027              	jr	NZ,l_game_loop_00107
   463                          ;game_loop.c:56: break;
   464                          l_game_loop_00102:
   465                          ;game_loop.c:59: update_entities();
   466  008a  cd0000            	call	_update_entities
   467                          ;game_loop.c:60: update_messages();
   468  008d  cd0000            	call	_update_messages
   469                          ;game_loop.c:61: next_iteration_delta = update_screen() * game_frame_speed;
   470  0090  cd0000            	call	_update_screen
   471  0093  7d                	ld	a, l
   472  0094  f5                	push	af
   473  0095  33                	inc	sp
   474  0096  cd0000            	call	___uchar2fs_callee
   475  0099  4d                	ld	c, l
   476  009a  44                	ld	b, h
   477  009b  2a0200            	ld	hl, (_game_frame_speed + 2)
   478  009e  e5                	push	hl
   479  009f  2a0000            	ld	hl, (_game_frame_speed)
   480  00a2  e5                	push	hl
   481  00a3  d5                	push	de
   482  00a4  c5                	push	bc
   483  00a5  cd0000            	call	___fsmul_callee
   484  00a8  220000            	ld	(_next_iteration_delta),hl
   485  00ab  eb                	ex	de,hl
   486  00ac  220200            	ld	(_next_iteration_delta + 2), hl
   487  00af  18c4              	jr	l_game_loop_00104
   488                          l_game_loop_00107:
   489                          ;game_loop.c:78: }
   490  00b1  ddf9              	ld	sp, ix
   491  00b3  dde1              	pop	ix
   492  00b5  c9                	ret
   493                          	SECTION data_compiler
   494                          _next_iteration_delta:
   495  0000  0000803f          	DEFB +0x00,0x00, +0x80, +0x3f
   496                          _game_speeds:
   497  0004  9a99193f          	DEFB +0x9a,0x99, +0x19, +0x3f
   498  0008  cdcc4c3f          	DEFB +0xcd,0xcc, +0x4c, +0x3f
   499  000c  0000803f          	DEFB +0x00,0x00, +0x80, +0x3f
   500                          	SECTION IGNORE
   501                          
