/tmp/tmplCxdC0LP.asm:
     1                          MODULE menu_options_c
     2                          LINE 0, "menu_options.c"
menu_options.c:
                                
     1                          ;--------------------------------------------------------
     2                          ; File Created by SDCC : free open source ISO C Compiler
     3                          ; Version 4.3.0 #14210 (Mac OS X ppc)
     4                          ;--------------------------------------------------------
     5                          	.zxn
     6                          ; Processed by Z88DK
     7                          ;--------------------------------------------------------
     8                          
     9                          	EXTERN __divschar
    10                          	EXTERN __divschar_callee
    11                          	EXTERN __divsint
    12                          	EXTERN __divsint_callee
    13                          	EXTERN __divslong
    14                          	EXTERN __divslong_callee
    15                          	EXTERN __divslonglong
    16                          	EXTERN __divslonglong_callee
    17                          	EXTERN __divsuchar
    18                          	EXTERN __divsuchar_callee
    19                          	EXTERN __divuchar
    20                          	EXTERN __divuchar_callee
    21                          	EXTERN __divuint
    22                          	EXTERN __divuint_callee
    23                          	EXTERN __divulong
    24                          	EXTERN __divulong_callee
    25                          	EXTERN __divulonglong
    26                          	EXTERN __divulonglong_callee
    27                          	EXTERN __divuschar
    28                          	EXTERN __divuschar_callee
    29                          	EXTERN __modschar
    30                          	EXTERN __modschar_callee
    31                          	EXTERN __modsint
    32                          	EXTERN __modsint_callee
    33                          	EXTERN __modslong
    34                          	EXTERN __modslong_callee
    35                          	EXTERN __modslonglong
    36                          	EXTERN __modslonglong_callee
    37                          	EXTERN __modsuchar
    38                          	EXTERN __modsuchar_callee
    39                          	EXTERN __moduchar
    40                          	EXTERN __moduchar_callee
    41                          	EXTERN __moduint
    42                          	EXTERN __moduint_callee
    43                          	EXTERN __modulong
    44                          	EXTERN __modulong_callee
    45                          	EXTERN __modulonglong
    46                          	EXTERN __modulonglong_callee
    47                          	EXTERN __moduschar
    48                          	EXTERN __moduschar_callee
    49                          	EXTERN __mulint
    50                          	EXTERN __mulint_callee
    51                          	EXTERN __mullong
    52                          	EXTERN __mullong_callee
    53                          	EXTERN __mullonglong
    54                          	EXTERN __mullonglong_callee
    55                          	EXTERN __mulschar
    56                          	EXTERN __mulschar_callee
    57                          	EXTERN __mulsuchar
    58                          	EXTERN __mulsuchar_callee
    59                          	EXTERN __muluchar
    60                          	EXTERN __muluchar_callee
    61                          	EXTERN __muluschar
    62                          	EXTERN __muluschar_callee
    63                          	EXTERN __rlslonglong
    64                          	EXTERN __rlslonglong_callee
    65                          	EXTERN __rlulonglong
    66                          	EXTERN __rlulonglong_callee
    67                          	EXTERN __rrslonglong
    68                          	EXTERN __rrslonglong_callee
    69                          	EXTERN __rrulonglong
    70                          	EXTERN __rrulonglong_callee
    71                          	EXTERN ___mulsint2slong
    72                          	EXTERN ___mulsint2slong_callee
    73                          	EXTERN ___muluint2ulong
    74                          	EXTERN ___muluint2ulong_callee
    75                          	EXTERN ___sdcc_call_hl
    76                          	EXTERN ___sdcc_call_iy
    77                          	EXTERN ___sdcc_enter_ix
    78                          	EXTERN banked_call
    79                          	EXTERN _banked_ret
    80                          	EXTERN ___fs2schar
    81                          	EXTERN ___fs2schar_callee
    82                          	EXTERN ___fs2sint
    83                          	EXTERN ___fs2sint_callee
    84                          	EXTERN ___fs2slong
    85                          	EXTERN ___fs2slong_callee
    86                          	EXTERN ___fs2slonglong
    87                          	EXTERN ___fs2slonglong_callee
    88                          	EXTERN ___fs2uchar
    89                          	EXTERN ___fs2uchar_callee
    90                          	EXTERN ___fs2uint
    91                          	EXTERN ___fs2uint_callee
    92                          	EXTERN ___fs2ulong
    93                          	EXTERN ___fs2ulong_callee
    94                          	EXTERN ___fs2ulonglong
    95                          	EXTERN ___fs2ulonglong_callee
    96                          	EXTERN ___fsadd
    97                          	EXTERN ___fsadd_callee
    98                          	EXTERN ___fsdiv
    99                          	EXTERN ___fsdiv_callee
   100                          	EXTERN ___fseq
   101                          	EXTERN ___fseq_callee
   102                          	EXTERN ___fsgt
   103                          	EXTERN ___fsgt_callee
   104                          	EXTERN ___fslt
   105                          	EXTERN ___fslt_callee
   106                          	EXTERN ___fsmul
   107                          	EXTERN ___fsmul_callee
   108                          	EXTERN ___fsneq
   109                          	EXTERN ___fsneq_callee
   110                          	EXTERN ___fssub
   111                          	EXTERN ___fssub_callee
   112                          	EXTERN ___schar2fs
   113                          	EXTERN ___schar2fs_callee
   114                          	EXTERN ___sint2fs
   115                          	EXTERN ___sint2fs_callee
   116                          	EXTERN ___slong2fs
   117                          	EXTERN ___slong2fs_callee
   118                          	EXTERN ___slonglong2fs
   119                          	EXTERN ___slonglong2fs_callee
   120                          	EXTERN ___uchar2fs
   121                          	EXTERN ___uchar2fs_callee
   122                          	EXTERN ___uint2fs
   123                          	EXTERN ___uint2fs_callee
   124                          	EXTERN ___ulong2fs
   125                          	EXTERN ___ulong2fs_callee
   126                          	EXTERN ___ulonglong2fs
   127                          	EXTERN ___ulonglong2fs_callee
   128                          	EXTERN ____sdcc_2_copy_src_mhl_dst_deix
   129                          	EXTERN ____sdcc_2_copy_src_mhl_dst_bcix
   130                          	EXTERN ____sdcc_4_copy_src_mhl_dst_deix
   131                          	EXTERN ____sdcc_4_copy_src_mhl_dst_bcix
   132                          	EXTERN ____sdcc_4_copy_src_mhl_dst_mbc
   133                          	EXTERN ____sdcc_4_ldi_nosave_bc
   134                          	EXTERN ____sdcc_4_ldi_save_bc
   135                          	EXTERN ____sdcc_4_push_hlix
   136                          	EXTERN ____sdcc_4_push_mhl
   137                          	EXTERN ____sdcc_lib_setmem_hl
   138                          	EXTERN ____sdcc_ll_add_de_bc_hl
   139                          	EXTERN ____sdcc_ll_add_de_bc_hlix
   140                          	EXTERN ____sdcc_ll_add_de_hlix_bc
   141                          	EXTERN ____sdcc_ll_add_de_hlix_bcix
   142                          	EXTERN ____sdcc_ll_add_deix_bc_hl
   143                          	EXTERN ____sdcc_ll_add_deix_hlix
   144                          	EXTERN ____sdcc_ll_add_hlix_bc_deix
   145                          	EXTERN ____sdcc_ll_add_hlix_deix_bc
   146                          	EXTERN ____sdcc_ll_add_hlix_deix_bcix
   147                          	EXTERN ____sdcc_ll_asr_hlix_a
   148                          	EXTERN ____sdcc_ll_asr_mbc_a
   149                          	EXTERN ____sdcc_ll_copy_src_de_dst_hlix
   150                          	EXTERN ____sdcc_ll_copy_src_de_dst_hlsp
   151                          	EXTERN ____sdcc_ll_copy_src_deix_dst_hl
   152                          	EXTERN ____sdcc_ll_copy_src_deix_dst_hlix
   153                          	EXTERN ____sdcc_ll_copy_src_deixm_dst_hlsp
   154                          	EXTERN ____sdcc_ll_copy_src_desp_dst_hlsp
   155                          	EXTERN ____sdcc_ll_copy_src_hl_dst_de
   156                          	EXTERN ____sdcc_ll_copy_src_hlsp_dst_de
   157                          	EXTERN ____sdcc_ll_copy_src_hlsp_dst_deixm
   158                          	EXTERN ____sdcc_ll_lsl_hlix_a
   159                          	EXTERN ____sdcc_ll_lsl_mbc_a
   160                          	EXTERN ____sdcc_ll_lsr_hlix_a
   161                          	EXTERN ____sdcc_ll_lsr_mbc_a
   162                          	EXTERN ____sdcc_ll_push_hlix
   163                          	EXTERN ____sdcc_ll_push_mhl
   164                          	EXTERN ____sdcc_ll_sub_de_bc_hl
   165                          	EXTERN ____sdcc_ll_sub_de_bc_hlix
   166                          	EXTERN ____sdcc_ll_sub_de_hlix_bc
   167                          	EXTERN ____sdcc_ll_sub_de_hlix_bcix
   168                          	EXTERN ____sdcc_ll_sub_deix_bc_hl
   169                          	EXTERN ____sdcc_ll_sub_deix_hlix
   170                          	EXTERN ____sdcc_ll_sub_hlix_bc_deix
   171                          	EXTERN ____sdcc_ll_sub_hlix_deix_bc
   172                          	EXTERN ____sdcc_ll_sub_hlix_deix_bcix
   173                          	EXTERN ____sdcc_load_debc_deix
   174                          	EXTERN ____sdcc_load_dehl_deix
   175                          	EXTERN ____sdcc_load_debc_mhl
   176                          	EXTERN ____sdcc_load_hlde_mhl
   177                          	EXTERN ____sdcc_store_dehl_bcix
   178                          	EXTERN ____sdcc_store_debc_hlix
   179                          	EXTERN ____sdcc_store_debc_mhl
   180                          	EXTERN ____sdcc_cpu_pop_ei
   181                          	EXTERN ____sdcc_cpu_pop_ei_jp
   182                          	EXTERN ____sdcc_cpu_push_di
   183                          	EXTERN ____sdcc_outi
   184                          	EXTERN ____sdcc_outi_128
   185                          	EXTERN ____sdcc_outi_256
   186                          	EXTERN ____sdcc_ldi
   187                          	EXTERN ____sdcc_ldi_128
   188                          	EXTERN ____sdcc_ldi_256
   189                          	EXTERN ____sdcc_4_copy_srcd_hlix_dst_deix
   190                          	EXTERN ____sdcc_4_and_src_mbc_mhl_dst_deix
   191                          	EXTERN ____sdcc_4_or_src_mbc_mhl_dst_deix
   192                          	EXTERN ____sdcc_4_xor_src_mbc_mhl_dst_deix
   193                          	EXTERN ____sdcc_4_or_src_dehl_dst_bcix
   194                          	EXTERN ____sdcc_4_xor_src_dehl_dst_bcix
   195                          	EXTERN ____sdcc_4_and_src_dehl_dst_bcix
   196                          	EXTERN ____sdcc_4_xor_src_mbc_mhl_dst_debc
   197                          	EXTERN ____sdcc_4_or_src_mbc_mhl_dst_debc
   198                          	EXTERN ____sdcc_4_and_src_mbc_mhl_dst_debc
   199                          	EXTERN ____sdcc_4_cpl_src_mhl_dst_debc
   200                          	EXTERN ____sdcc_4_xor_src_debc_mhl_dst_debc
   201                          	EXTERN ____sdcc_4_or_src_debc_mhl_dst_debc
   202                          	EXTERN ____sdcc_4_and_src_debc_mhl_dst_debc
   203                          	EXTERN ____sdcc_4_and_src_debc_hlix_dst_debc
   204                          	EXTERN ____sdcc_4_or_src_debc_hlix_dst_debc
   205                          	EXTERN ____sdcc_4_xor_src_debc_hlix_dst_debc
   206                          
   207                          ;--------------------------------------------------------
   208                          ; Public variables in this module
   209                          ;--------------------------------------------------------
   210                          	GLOBAL _display_speed
   211                          	GLOBAL _change_speed
   212                          	GLOBAL _display_surface
   213                          	GLOBAL _change_surface
   214                          	GLOBAL _start_options_menu
   215                          ;--------------------------------------------------------
   216                          ; Externals used
   217                          ;--------------------------------------------------------
   218                          	GLOBAL _menu_go_back
   219                          	GLOBAL _handle_std_menu
   220                          	GLOBAL _read_menu_input
   221                          	GLOBAL _diplay_profile
   222                          	GLOBAL _lfont_set_palette
   223                          	GLOBAL _lfont_clear_remaining_line
   224                          	GLOBAL _lfont_write_text
   225                          	GLOBAL _lfont_write_char
   226                          	GLOBAL _lfont_set_position
   227                          	GLOBAL _game_settings
   228                          	GLOBAL _ppponent_profile
   229                          ;--------------------------------------------------------
   230                          ; special function registers
   231                          ;--------------------------------------------------------
   232                          ;--------------------------------------------------------
   233                          ; ram data
   234                          ;--------------------------------------------------------
   235                          	SECTION bss_compiler
   236                          ;--------------------------------------------------------
   237                          ; ram data
   238                          ;--------------------------------------------------------
   239                          
   240                          IF 0
   241                          
   242                          ; .area _INITIALIZED removed by z88dk
   243                          
   244                          _surface_names:
   245                          	DEFS 8
   246                          _speed_names:
   247                          	DEFS 6
   248                          _options_menu:
   249                          	DEFS 18
   250                          
   251                          ENDIF
   252                          
   253                          ;--------------------------------------------------------
   254                          ; absolute external ram data
   255                          ;--------------------------------------------------------
   256                          	SECTION IGNORE
   257                          ;--------------------------------------------------------
   258                          ; global & static initialisations
   259                          ;--------------------------------------------------------
   260                          	SECTION code_crt_init
   261                          ;--------------------------------------------------------
   262                          ; Home
   263                          ;--------------------------------------------------------
   264                          	SECTION IGNORE
   265                          ;--------------------------------------------------------
   266                          ; code
   267                          ;--------------------------------------------------------
   268                          	SECTION code_compiler
   269                          ;menu_options.c:25: int8_t change_surface(int8_t entry)
   270                          ;	---------------------------------
   271                          ; Function change_surface
   272                          ; ---------------------------------
   273                          _change_surface:
   274  0000  cd0000            	call	___sdcc_enter_ix
   275                          ;menu_options.c:28: game_settings.surface_choice = (game_settings.surface_choice + 1) % SURFACE_TYPE_COUNT;
   276  0003  010000            	ld	bc,_game_settings+23
   277  0006  0a                	ld	a, (bc)
   278  0007  1600              	ld	d,0x00
   279  0009  5f                	ld	e, a
   280  000a  13                	inc	de
   281  000b  c5                	push	bc
   282  000c  210000            	ld	hl,0x0004
   283  000f  e5                	push	hl
   284  0010  d5                	push	de
   285  0011  cd0000            	call	__modsint_callee
   286  0014  c1                	pop	bc
   287  0015  7d                	ld	a, l
   288  0016  02                	ld	(bc), a
   289                          ;menu_options.c:29: return -1;
   290  0017  2e00              	ld	l,0xff
   291                          ;menu_options.c:30: }
   292  0019  dde1              	pop	ix
   293  001b  c9                	ret
   294                          ;menu_options.c:32: void display_surface(int8_t entry)
   295                          ;	---------------------------------
   296                          ; Function display_surface
   297                          ; ---------------------------------
   298                          _display_surface:
   299  001c  cd0000            	call	___sdcc_enter_ix
   300                          ;menu_options.c:35: lfont_write_text(surface_names[game_settings.surface_choice]);
   301  001f  010000            	ld	bc,_surface_names+0
   302  0022  3a0000            	ld	a,(_game_settings + 23)
   303  0025  2600              	ld	h,0x00
   304  0027  6f                	ld	l, a
   305  0028  29                	add	hl, hl
   306  0029  09                	add	hl, bc
   307  002a  4e                	ld	c, (hl)
   308  002b  23                	inc	hl
   309  002c  46                	ld	b, (hl)
   310  002d  c5                	push	bc
   311  002e  cd0000            	call	_lfont_write_text
   312  0031  f1                	pop	af
   313                          ;menu_options.c:36: lfont_clear_remaining_line();
   314                          ;menu_options.c:37: }
   315  0032  dde1              	pop	ix
   316  0034  c30000            	jp	_lfont_clear_remaining_line
   317                          ;menu_options.c:39: int8_t change_speed(int8_t entry)
   318                          ;	---------------------------------
   319                          ; Function change_speed
   320                          ; ---------------------------------
   321                          _change_speed:
   322  0037  cd0000            	call	___sdcc_enter_ix
   323                          ;menu_options.c:42: game_settings.speed = (game_settings.speed + 1) % SPEED_TYPE_COUNT;
   324  003a  010000            	ld	bc,_game_settings+25
   325  003d  0a                	ld	a, (bc)
   326  003e  1600              	ld	d,0x00
   327  0040  5f                	ld	e, a
   328  0041  13                	inc	de
   329  0042  c5                	push	bc
   330  0043  210300            	ld	hl,0x0003
   331  0046  e5                	push	hl
   332  0047  d5                	push	de
   333  0048  cd0000            	call	__modsint_callee
   334  004b  c1                	pop	bc
   335  004c  7d                	ld	a, l
   336  004d  02                	ld	(bc), a
   337                          ;menu_options.c:43: return -1;
   338  004e  2eff              	ld	l,0xff
   339                          ;menu_options.c:44: }
   340  0050  dde1              	pop	ix
   341  0052  c9                	ret
   342                          ;menu_options.c:46: void display_speed(int8_t entry)
   343                          ;	---------------------------------
   344                          ; Function display_speed
   345                          ; ---------------------------------
   346                          _display_speed:
   347  0053  cd0000            	call	___sdcc_enter_ix
   348                          ;menu_options.c:49: lfont_write_text(speed_names[game_settings.speed]);
   349  0056  010800            	ld	bc,_speed_names+0
   350  0059  3a1900            	ld	a,(_game_settings + 25)
   351  005c  2600              	ld	h,0x00
   352  005e  6f                	ld	l, a
   353  005f  29                	add	hl, hl
   354  0060  09                	add	hl, bc
   355  0061  4e                	ld	c, (hl)
   356  0062  23                	inc	hl
   357  0063  46                	ld	b, (hl)
   358  0064  c5                	push	bc
   359  0065  cd0000            	call	_lfont_write_text
   360  0068  f1                	pop	af
   361                          ;menu_options.c:50: lfont_clear_remaining_line();
   362                          ;menu_options.c:51: }
   363  0069  dde1              	pop	ix
   364  006b  c30000            	jp	_lfont_clear_remaining_line
   365                          ;menu_options.c:58: int8_t start_options_menu(int8_t entry)
   366                          ;	---------------------------------
   367                          ; Function start_options_menu
   368                          ; ---------------------------------
   369                          _start_options_menu:
   370  006e  cd0000            	call	___sdcc_enter_ix
   371                          ;menu_options.c:61: return handle_std_menu(&options_menu, sizeof(options_menu) / sizeof(MenuEntry), OPTIONS_MENU_LEFT_COLUMN, false);
   372  0071  af                	xor	a, a
   373  0072  57                	ld	d,a
   374  0073  1e15              	ld	e,0x15
   375  0075  d5                	push	de
   376  0076  3e03              	ld	a,0x03
   377  0078  f5                	push	af
   378  0079  33                	inc	sp
   379  007a  210e00            	ld	hl,_options_menu
   380  007d  e5                	push	hl
   381  007e  cd0000            	call	_handle_std_menu
   382  0081  f1                	pop	af
   383  0082  f1                	pop	af
   384  0083  33                	inc	sp
   385                          ;menu_options.c:62: }
   386  0084  dde1              	pop	ix
   387  0086  c9                	ret
   388                          	SECTION rodata_compiler
   389                          ___str_0:
   390  0000  4752415353        	DEFM "GRASS"
   391  0005  00                	DEFB 0x00
   392                          	SECTION rodata_compiler
   393                          ___str_1:
   394  0006  434c4159          	DEFM "CLAY"
   395  000a  00                	DEFB 0x00
   396                          	SECTION rodata_compiler
   397                          ___str_2:
   398  000b  48415244          	DEFM "HARD"
   399  000f  00                	DEFB 0x00
   400                          	SECTION rodata_compiler
   401                          ___str_3:
   402  0010  52414e444f4d      	DEFM "RANDOM"
   403  0016  00                	DEFB 0x00
   404                          	SECTION rodata_compiler
   405                          ___str_4:
   406  0017  534c4f57          	DEFM "SLOW"
   407  001b  00                	DEFB 0x00
   408                          	SECTION rodata_compiler
   409                          ___str_5:
   410  001c  4e4f524d0000      	DEFM "NORMAL"
   411  0022  00                	DEFB 0x00
   412                          	SECTION rodata_compiler
   413                          ___str_6:
   414  0023  17005300          	DEFM "FAST"
   415  0027  00                	DEFB 0x00
   416                          	SECTION rodata_compiler
   417                          ___str_7:
   418  0028  5355524641434500  	DEFM "SURFACE: "
              00                
   419  0031  00                	DEFB 0x00
   420                          	SECTION rodata_compiler
   421                          ___str_8:
   422  0032  47414d0000530000  	DEFM "GAME SPEED: "
              45190020          
   423  003e  00                	DEFB 0x00
   424                          	SECTION rodata_compiler
   425                          ___str_9:
   426  003f  0041434b          	DEFM "BACK"
   427  0043  00                	DEFB 0x00
   428                          	SECTION data_compiler
   429                          _surface_names:
   430  0000  0000              	DEFW ___str_0
   431  0002  0600              	DEFW ___str_1
   432  0004  0b00              	DEFW ___str_2
   433  0006  1000              	DEFW ___str_3
   434                          _speed_names:
   435  0008  1700              	DEFW ___str_4
   436  000a  1c00              	DEFW ___str_5
   437  000c  2300              	DEFW ___str_6
   438                          _options_menu:
   439  000e  2800              	DEFW ___str_7
   440  0010  0000              	DEFW _change_surface
   441  0012  1c00              	DEFW _display_surface
   442  0014  3200              	DEFW ___str_8
   443  0016  3700              	DEFW _change_speed
   444  0018  5300              	DEFW _display_speed
   445  001a  3f00              	DEFW ___str_9
   446  001c  0000              	DEFW _menu_go_back
   447  001e  0000              	DEFW +0x0000
   448                          	SECTION IGNORE
   449                          
