/tmp/tmpYN6BYM41.asm:
     1                          MODULE net_c
     2                          LINE 0, "net.c"
net.c:
                                
     1                          ;--------------------------------------------------------
     2                          ; File Created by SDCC : free open source ISO C Compiler
     3                          ; Version 4.3.0 #14210 (Mac OS X ppc)
     4                          ;--------------------------------------------------------
     5                          	.zxn
     6                          ; Processed by Z88DK
     7                          ;--------------------------------------------------------
     8                          
     9                          	EXTERN __divschar
    10                          	EXTERN __divschar_callee
    11                          	EXTERN __divsint
    12                          	EXTERN __divsint_callee
    13                          	EXTERN __divslong
    14                          	EXTERN __divslong_callee
    15                          	EXTERN __divslonglong
    16                          	EXTERN __divslonglong_callee
    17                          	EXTERN __divsuchar
    18                          	EXTERN __divsuchar_callee
    19                          	EXTERN __divuchar
    20                          	EXTERN __divuchar_callee
    21                          	EXTERN __divuint
    22                          	EXTERN __divuint_callee
    23                          	EXTERN __divulong
    24                          	EXTERN __divulong_callee
    25                          	EXTERN __divulonglong
    26                          	EXTERN __divulonglong_callee
    27                          	EXTERN __divuschar
    28                          	EXTERN __divuschar_callee
    29                          	EXTERN __modschar
    30                          	EXTERN __modschar_callee
    31                          	EXTERN __modsint
    32                          	EXTERN __modsint_callee
    33                          	EXTERN __modslong
    34                          	EXTERN __modslong_callee
    35                          	EXTERN __modslonglong
    36                          	EXTERN __modslonglong_callee
    37                          	EXTERN __modsuchar
    38                          	EXTERN __modsuchar_callee
    39                          	EXTERN __moduchar
    40                          	EXTERN __moduchar_callee
    41                          	EXTERN __moduint
    42                          	EXTERN __moduint_callee
    43                          	EXTERN __modulong
    44                          	EXTERN __modulong_callee
    45                          	EXTERN __modulonglong
    46                          	EXTERN __modulonglong_callee
    47                          	EXTERN __moduschar
    48                          	EXTERN __moduschar_callee
    49                          	EXTERN __mulint
    50                          	EXTERN __mulint_callee
    51                          	EXTERN __mullong
    52                          	EXTERN __mullong_callee
    53                          	EXTERN __mullonglong
    54                          	EXTERN __mullonglong_callee
    55                          	EXTERN __mulschar
    56                          	EXTERN __mulschar_callee
    57                          	EXTERN __mulsuchar
    58                          	EXTERN __mulsuchar_callee
    59                          	EXTERN __muluchar
    60                          	EXTERN __muluchar_callee
    61                          	EXTERN __muluschar
    62                          	EXTERN __muluschar_callee
    63                          	EXTERN __rlslonglong
    64                          	EXTERN __rlslonglong_callee
    65                          	EXTERN __rlulonglong
    66                          	EXTERN __rlulonglong_callee
    67                          	EXTERN __rrslonglong
    68                          	EXTERN __rrslonglong_callee
    69                          	EXTERN __rrulonglong
    70                          	EXTERN __rrulonglong_callee
    71                          	EXTERN ___mulsint2slong
    72                          	EXTERN ___mulsint2slong_callee
    73                          	EXTERN ___muluint2ulong
    74                          	EXTERN ___muluint2ulong_callee
    75                          	EXTERN ___sdcc_call_hl
    76                          	EXTERN ___sdcc_call_iy
    77                          	EXTERN ___sdcc_enter_ix
    78                          	EXTERN banked_call
    79                          	EXTERN _banked_ret
    80                          	EXTERN ___fs2schar
    81                          	EXTERN ___fs2schar_callee
    82                          	EXTERN ___fs2sint
    83                          	EXTERN ___fs2sint_callee
    84                          	EXTERN ___fs2slong
    85                          	EXTERN ___fs2slong_callee
    86                          	EXTERN ___fs2slonglong
    87                          	EXTERN ___fs2slonglong_callee
    88                          	EXTERN ___fs2uchar
    89                          	EXTERN ___fs2uchar_callee
    90                          	EXTERN ___fs2uint
    91                          	EXTERN ___fs2uint_callee
    92                          	EXTERN ___fs2ulong
    93                          	EXTERN ___fs2ulong_callee
    94                          	EXTERN ___fs2ulonglong
    95                          	EXTERN ___fs2ulonglong_callee
    96                          	EXTERN ___fsadd
    97                          	EXTERN ___fsadd_callee
    98                          	EXTERN ___fsdiv
    99                          	EXTERN ___fsdiv_callee
   100                          	EXTERN ___fseq
   101                          	EXTERN ___fseq_callee
   102                          	EXTERN ___fsgt
   103                          	EXTERN ___fsgt_callee
   104                          	EXTERN ___fslt
   105                          	EXTERN ___fslt_callee
   106                          	EXTERN ___fsmul
   107                          	EXTERN ___fsmul_callee
   108                          	EXTERN ___fsneq
   109                          	EXTERN ___fsneq_callee
   110                          	EXTERN ___fssub
   111                          	EXTERN ___fssub_callee
   112                          	EXTERN ___schar2fs
   113                          	EXTERN ___schar2fs_callee
   114                          	EXTERN ___sint2fs
   115                          	EXTERN ___sint2fs_callee
   116                          	EXTERN ___slong2fs
   117                          	EXTERN ___slong2fs_callee
   118                          	EXTERN ___slonglong2fs
   119                          	EXTERN ___slonglong2fs_callee
   120                          	EXTERN ___uchar2fs
   121                          	EXTERN ___uchar2fs_callee
   122                          	EXTERN ___uint2fs
   123                          	EXTERN ___uint2fs_callee
   124                          	EXTERN ___ulong2fs
   125                          	EXTERN ___ulong2fs_callee
   126                          	EXTERN ___ulonglong2fs
   127                          	EXTERN ___ulonglong2fs_callee
   128                          	EXTERN ____sdcc_2_copy_src_mhl_dst_deix
   129                          	EXTERN ____sdcc_2_copy_src_mhl_dst_bcix
   130                          	EXTERN ____sdcc_4_copy_src_mhl_dst_deix
   131                          	EXTERN ____sdcc_4_copy_src_mhl_dst_bcix
   132                          	EXTERN ____sdcc_4_copy_src_mhl_dst_mbc
   133                          	EXTERN ____sdcc_4_ldi_nosave_bc
   134                          	EXTERN ____sdcc_4_ldi_save_bc
   135                          	EXTERN ____sdcc_4_push_hlix
   136                          	EXTERN ____sdcc_4_push_mhl
   137                          	EXTERN ____sdcc_lib_setmem_hl
   138                          	EXTERN ____sdcc_ll_add_de_bc_hl
   139                          	EXTERN ____sdcc_ll_add_de_bc_hlix
   140                          	EXTERN ____sdcc_ll_add_de_hlix_bc
   141                          	EXTERN ____sdcc_ll_add_de_hlix_bcix
   142                          	EXTERN ____sdcc_ll_add_deix_bc_hl
   143                          	EXTERN ____sdcc_ll_add_deix_hlix
   144                          	EXTERN ____sdcc_ll_add_hlix_bc_deix
   145                          	EXTERN ____sdcc_ll_add_hlix_deix_bc
   146                          	EXTERN ____sdcc_ll_add_hlix_deix_bcix
   147                          	EXTERN ____sdcc_ll_asr_hlix_a
   148                          	EXTERN ____sdcc_ll_asr_mbc_a
   149                          	EXTERN ____sdcc_ll_copy_src_de_dst_hlix
   150                          	EXTERN ____sdcc_ll_copy_src_de_dst_hlsp
   151                          	EXTERN ____sdcc_ll_copy_src_deix_dst_hl
   152                          	EXTERN ____sdcc_ll_copy_src_deix_dst_hlix
   153                          	EXTERN ____sdcc_ll_copy_src_deixm_dst_hlsp
   154                          	EXTERN ____sdcc_ll_copy_src_desp_dst_hlsp
   155                          	EXTERN ____sdcc_ll_copy_src_hl_dst_de
   156                          	EXTERN ____sdcc_ll_copy_src_hlsp_dst_de
   157                          	EXTERN ____sdcc_ll_copy_src_hlsp_dst_deixm
   158                          	EXTERN ____sdcc_ll_lsl_hlix_a
   159                          	EXTERN ____sdcc_ll_lsl_mbc_a
   160                          	EXTERN ____sdcc_ll_lsr_hlix_a
   161                          	EXTERN ____sdcc_ll_lsr_mbc_a
   162                          	EXTERN ____sdcc_ll_push_hlix
   163                          	EXTERN ____sdcc_ll_push_mhl
   164                          	EXTERN ____sdcc_ll_sub_de_bc_hl
   165                          	EXTERN ____sdcc_ll_sub_de_bc_hlix
   166                          	EXTERN ____sdcc_ll_sub_de_hlix_bc
   167                          	EXTERN ____sdcc_ll_sub_de_hlix_bcix
   168                          	EXTERN ____sdcc_ll_sub_deix_bc_hl
   169                          	EXTERN ____sdcc_ll_sub_deix_hlix
   170                          	EXTERN ____sdcc_ll_sub_hlix_bc_deix
   171                          	EXTERN ____sdcc_ll_sub_hlix_deix_bc
   172                          	EXTERN ____sdcc_ll_sub_hlix_deix_bcix
   173                          	EXTERN ____sdcc_load_debc_deix
   174                          	EXTERN ____sdcc_load_dehl_deix
   175                          	EXTERN ____sdcc_load_debc_mhl
   176                          	EXTERN ____sdcc_load_hlde_mhl
   177                          	EXTERN ____sdcc_store_dehl_bcix
   178                          	EXTERN ____sdcc_store_debc_hlix
   179                          	EXTERN ____sdcc_store_debc_mhl
   180                          	EXTERN ____sdcc_cpu_pop_ei
   181                          	EXTERN ____sdcc_cpu_pop_ei_jp
   182                          	EXTERN ____sdcc_cpu_push_di
   183                          	EXTERN ____sdcc_outi
   184                          	EXTERN ____sdcc_outi_128
   185                          	EXTERN ____sdcc_outi_256
   186                          	EXTERN ____sdcc_ldi
   187                          	EXTERN ____sdcc_ldi_128
   188                          	EXTERN ____sdcc_ldi_256
   189                          	EXTERN ____sdcc_4_copy_srcd_hlix_dst_deix
   190                          	EXTERN ____sdcc_4_and_src_mbc_mhl_dst_deix
   191                          	EXTERN ____sdcc_4_or_src_mbc_mhl_dst_deix
   192                          	EXTERN ____sdcc_4_xor_src_mbc_mhl_dst_deix
   193                          	EXTERN ____sdcc_4_or_src_dehl_dst_bcix
   194                          	EXTERN ____sdcc_4_xor_src_dehl_dst_bcix
   195                          	EXTERN ____sdcc_4_and_src_dehl_dst_bcix
   196                          	EXTERN ____sdcc_4_xor_src_mbc_mhl_dst_debc
   197                          	EXTERN ____sdcc_4_or_src_mbc_mhl_dst_debc
   198                          	EXTERN ____sdcc_4_and_src_mbc_mhl_dst_debc
   199                          	EXTERN ____sdcc_4_cpl_src_mhl_dst_debc
   200                          	EXTERN ____sdcc_4_xor_src_debc_mhl_dst_debc
   201                          	EXTERN ____sdcc_4_or_src_debc_mhl_dst_debc
   202                          	EXTERN ____sdcc_4_and_src_debc_mhl_dst_debc
   203                          	EXTERN ____sdcc_4_and_src_debc_hlix_dst_debc
   204                          	EXTERN ____sdcc_4_or_src_debc_hlix_dst_debc
   205                          	EXTERN ____sdcc_4_xor_src_debc_hlix_dst_debc
   206                          
   207                          ;--------------------------------------------------------
   208                          ; Public variables in this module
   209                          ;--------------------------------------------------------
   210                          	GLOBAL _net_height_at
   211                          ;--------------------------------------------------------
   212                          ; Externals used
   213                          ;--------------------------------------------------------
   214                          	GLOBAL _xy_in_boundary
   215                          	GLOBAL _point_in_boundary
   216                          	GLOBAL _x_projection
   217                          	GLOBAL _court_boundaries
   218                          ;--------------------------------------------------------
   219                          ; special function registers
   220                          ;--------------------------------------------------------
   221                          ;--------------------------------------------------------
   222                          ; ram data
   223                          ;--------------------------------------------------------
   224                          	SECTION bss_compiler
   225                          ;--------------------------------------------------------
   226                          ; ram data
   227                          ;--------------------------------------------------------
   228                          
   229                          IF 0
   230                          
   231                          ; .area _INITIALIZED removed by z88dk
   232                          
   233                          
   234                          ENDIF
   235                          
   236                          ;--------------------------------------------------------
   237                          ; absolute external ram data
   238                          ;--------------------------------------------------------
   239                          	SECTION IGNORE
   240                          ;--------------------------------------------------------
   241                          ; global & static initialisations
   242                          ;--------------------------------------------------------
   243                          	SECTION code_crt_init
   244                          ;--------------------------------------------------------
   245                          ; Home
   246                          ;--------------------------------------------------------
   247                          	SECTION IGNORE
   248                          ;--------------------------------------------------------
   249                          ; code
   250                          ;--------------------------------------------------------
   251                          	SECTION BANK_8
   252                          ;net.c:11: float px = x_projection(x, NET_POSITION_Y);
   253                          ;	---------------------------------
   254                          ; Function net_height_at
   255                          ; ---------------------------------
   256                          _net_height_at:
   257  0000  cd0000            	call	___sdcc_enter_ix
   258                          ;net.c:13: // Distance from the center of the net
   259  0003  dd6e04            	ld	l,(ix+4)
   260  0006  dd6605            	ld	h,(ix+5)
   261  0009  e5                	push	hl
   262  000a  cd0000            	call	___sint2fs_callee
   263  000d  012043            	ld	bc,0x4320
   264  0010  c5                	push	bc
   265  0011  010000            	ld	bc,0x0000
   266  0014  c5                	push	bc
   267  0015  d5                	push	de
   268  0016  e5                	push	hl
   269  0017  cd0000            	call	_x_projection
   270  001a  f1                	pop	af
   271  001b  f1                	pop	af
   272  001c  f1                	pop	af
   273  001d  f1                	pop	af
   274                          ;net.c:16: x_diff = -x_diff;
   275  001e  012043            	ld	bc,0x4320
   276  0021  c5                	push	bc
   277  0022  010000            	ld	bc,0x0000
   278  0025  c5                	push	bc
   279  0026  d5                	push	de
   280  0027  e5                	push	hl
   281  0028  cd0000            	call	___fssub_callee
   282  002b  d5                	push	de
   283  002c  e5                	push	hl
   284  002d  cd0000            	call	___fs2sint_callee
   285                          ;net.c:17:
   286  0030  cb7c              	bit	7,h
   287  0032  4d                	ld	c,l
   288  0033  44                	ld	b,h
   289  0034  2806              	jr	Z,l_net_height_at_00102
   290                          ;net.c:18: // Outside the net
   291  0036  af                	xor	a, a
   292  0037  91                	sub	a, c
   293  0038  4f                	ld	c, a
   294  0039  9f                	sbc	a, a
   295  003a  90                	sub	a, b
   296  003b  47                	ld	b, a
   297                          l_net_height_at_00102:
   298                          ;net.c:21:
   299  003c  3e60              	ld	a,0x60
   300  003e  b9                	cp	a, c
   301  003f  3e00              	ld	a,0x00
   302  0041  98                	sbc	a, b
   303  0042  e24700            	jp	PO, l_net_height_at_00131
   304  0045  ee80              	xor	a,0x80
   305                          l_net_height_at_00131:
   306  0047  f24e00            	jp	P, l_net_height_at_00104
   307                          ;net.c:22: if (x_diff > 16 * 4 + 3)
   308  004a  2e00              	ld	l,0x00
   309  004c  1826              	jr	l_net_height_at_00109
   310                          l_net_height_at_00104:
   311                          ;net.c:24:
   312  004e  3e43              	ld	a,0x43
   313  0050  b9                	cp	a, c
   314  0051  3e00              	ld	a,0x00
   315  0053  98                	sbc	a, b
   316  0054  e25900            	jp	PO, l_net_height_at_00132
   317  0057  ee80              	xor	a,0x80
   318                          l_net_height_at_00132:
   319  0059  f26000            	jp	P, l_net_height_at_00106
   320                          ;net.c:25: if (x_diff > 16 + 5)
   321  005c  2e12              	ld	l,0x12
   322  005e  1814              	jr	l_net_height_at_00109
   323                          l_net_height_at_00106:
   324                          ;net.c:27:
   325  0060  3e15              	ld	a,0x15
   326  0062  b9                	cp	a, c
   327  0063  3e00              	ld	a,0x00
   328  0065  98                	sbc	a, b
   329  0066  e26b00            	jp	PO, l_net_height_at_00133
   330  0069  ee80              	xor	a,0x80
   331                          l_net_height_at_00133:
   332  006b  f27200            	jp	P, l_net_height_at_00108
   333                          ;net.c:28: return MINIMUM_NET_HEIGHT;
   334  006e  2e11              	ld	l,0x11
   335  0070  1802              	jr	l_net_height_at_00109
   336                          l_net_height_at_00108:
   337                          ;net.c:30: ERROR: no line number 30 in file net.c
   338  0072  2e10              	ld	l,0x10
   339                          l_net_height_at_00109:
   340                          ;net.c:31: ERROR: no line number 31 in file net.c
   341  0074  dde1              	pop	ix
   342  0076  c9                	ret
   343                          	SECTION IGNORE
   344                          
