/tmp/tmpMElgtB2S.asm:
     1                          MODULE player_transitions_c
     2                          LINE 0, "player_transitions.c"
player_transitions.c:
                                
     1                          ;--------------------------------------------------------
     2                          ; File Created by SDCC : free open source ISO C Compiler
     3                          ; Version 4.3.0 #14210 (Mac OS X ppc)
     4                          ;--------------------------------------------------------
     5                          	.zxn
     6                          ; Processed by Z88DK
     7                          ;--------------------------------------------------------
     8                          
     9                          	EXTERN __divschar
    10                          	EXTERN __divschar_callee
    11                          	EXTERN __divsint
    12                          	EXTERN __divsint_callee
    13                          	EXTERN __divslong
    14                          	EXTERN __divslong_callee
    15                          	EXTERN __divslonglong
    16                          	EXTERN __divslonglong_callee
    17                          	EXTERN __divsuchar
    18                          	EXTERN __divsuchar_callee
    19                          	EXTERN __divuchar
    20                          	EXTERN __divuchar_callee
    21                          	EXTERN __divuint
    22                          	EXTERN __divuint_callee
    23                          	EXTERN __divulong
    24                          	EXTERN __divulong_callee
    25                          	EXTERN __divulonglong
    26                          	EXTERN __divulonglong_callee
    27                          	EXTERN __divuschar
    28                          	EXTERN __divuschar_callee
    29                          	EXTERN __modschar
    30                          	EXTERN __modschar_callee
    31                          	EXTERN __modsint
    32                          	EXTERN __modsint_callee
    33                          	EXTERN __modslong
    34                          	EXTERN __modslong_callee
    35                          	EXTERN __modslonglong
    36                          	EXTERN __modslonglong_callee
    37                          	EXTERN __modsuchar
    38                          	EXTERN __modsuchar_callee
    39                          	EXTERN __moduchar
    40                          	EXTERN __moduchar_callee
    41                          	EXTERN __moduint
    42                          	EXTERN __moduint_callee
    43                          	EXTERN __modulong
    44                          	EXTERN __modulong_callee
    45                          	EXTERN __modulonglong
    46                          	EXTERN __modulonglong_callee
    47                          	EXTERN __moduschar
    48                          	EXTERN __moduschar_callee
    49                          	EXTERN __mulint
    50                          	EXTERN __mulint_callee
    51                          	EXTERN __mullong
    52                          	EXTERN __mullong_callee
    53                          	EXTERN __mullonglong
    54                          	EXTERN __mullonglong_callee
    55                          	EXTERN __mulschar
    56                          	EXTERN __mulschar_callee
    57                          	EXTERN __mulsuchar
    58                          	EXTERN __mulsuchar_callee
    59                          	EXTERN __muluchar
    60                          	EXTERN __muluchar_callee
    61                          	EXTERN __muluschar
    62                          	EXTERN __muluschar_callee
    63                          	EXTERN __rlslonglong
    64                          	EXTERN __rlslonglong_callee
    65                          	EXTERN __rlulonglong
    66                          	EXTERN __rlulonglong_callee
    67                          	EXTERN __rrslonglong
    68                          	EXTERN __rrslonglong_callee
    69                          	EXTERN __rrulonglong
    70                          	EXTERN __rrulonglong_callee
    71                          	EXTERN ___mulsint2slong
    72                          	EXTERN ___mulsint2slong_callee
    73                          	EXTERN ___muluint2ulong
    74                          	EXTERN ___muluint2ulong_callee
    75                          	EXTERN ___sdcc_call_hl
    76                          	EXTERN ___sdcc_call_iy
    77                          	EXTERN ___sdcc_enter_ix
    78                          	EXTERN banked_call
    79                          	EXTERN _banked_ret
    80                          	EXTERN ___fs2schar
    81                          	EXTERN ___fs2schar_callee
    82                          	EXTERN ___fs2sint
    83                          	EXTERN ___fs2sint_callee
    84                          	EXTERN ___fs2slong
    85                          	EXTERN ___fs2slong_callee
    86                          	EXTERN ___fs2slonglong
    87                          	EXTERN ___fs2slonglong_callee
    88                          	EXTERN ___fs2uchar
    89                          	EXTERN ___fs2uchar_callee
    90                          	EXTERN ___fs2uint
    91                          	EXTERN ___fs2uint_callee
    92                          	EXTERN ___fs2ulong
    93                          	EXTERN ___fs2ulong_callee
    94                          	EXTERN ___fs2ulonglong
    95                          	EXTERN ___fs2ulonglong_callee
    96                          	EXTERN ___fsadd
    97                          	EXTERN ___fsadd_callee
    98                          	EXTERN ___fsdiv
    99                          	EXTERN ___fsdiv_callee
   100                          	EXTERN ___fseq
   101                          	EXTERN ___fseq_callee
   102                          	EXTERN ___fsgt
   103                          	EXTERN ___fsgt_callee
   104                          	EXTERN ___fslt
   105                          	EXTERN ___fslt_callee
   106                          	EXTERN ___fsmul
   107                          	EXTERN ___fsmul_callee
   108                          	EXTERN ___fsneq
   109                          	EXTERN ___fsneq_callee
   110                          	EXTERN ___fssub
   111                          	EXTERN ___fssub_callee
   112                          	EXTERN ___schar2fs
   113                          	EXTERN ___schar2fs_callee
   114                          	EXTERN ___sint2fs
   115                          	EXTERN ___sint2fs_callee
   116                          	EXTERN ___slong2fs
   117                          	EXTERN ___slong2fs_callee
   118                          	EXTERN ___slonglong2fs
   119                          	EXTERN ___slonglong2fs_callee
   120                          	EXTERN ___uchar2fs
   121                          	EXTERN ___uchar2fs_callee
   122                          	EXTERN ___uint2fs
   123                          	EXTERN ___uint2fs_callee
   124                          	EXTERN ___ulong2fs
   125                          	EXTERN ___ulong2fs_callee
   126                          	EXTERN ___ulonglong2fs
   127                          	EXTERN ___ulonglong2fs_callee
   128                          	EXTERN ____sdcc_2_copy_src_mhl_dst_deix
   129                          	EXTERN ____sdcc_2_copy_src_mhl_dst_bcix
   130                          	EXTERN ____sdcc_4_copy_src_mhl_dst_deix
   131                          	EXTERN ____sdcc_4_copy_src_mhl_dst_bcix
   132                          	EXTERN ____sdcc_4_copy_src_mhl_dst_mbc
   133                          	EXTERN ____sdcc_4_ldi_nosave_bc
   134                          	EXTERN ____sdcc_4_ldi_save_bc
   135                          	EXTERN ____sdcc_4_push_hlix
   136                          	EXTERN ____sdcc_4_push_mhl
   137                          	EXTERN ____sdcc_lib_setmem_hl
   138                          	EXTERN ____sdcc_ll_add_de_bc_hl
   139                          	EXTERN ____sdcc_ll_add_de_bc_hlix
   140                          	EXTERN ____sdcc_ll_add_de_hlix_bc
   141                          	EXTERN ____sdcc_ll_add_de_hlix_bcix
   142                          	EXTERN ____sdcc_ll_add_deix_bc_hl
   143                          	EXTERN ____sdcc_ll_add_deix_hlix
   144                          	EXTERN ____sdcc_ll_add_hlix_bc_deix
   145                          	EXTERN ____sdcc_ll_add_hlix_deix_bc
   146                          	EXTERN ____sdcc_ll_add_hlix_deix_bcix
   147                          	EXTERN ____sdcc_ll_asr_hlix_a
   148                          	EXTERN ____sdcc_ll_asr_mbc_a
   149                          	EXTERN ____sdcc_ll_copy_src_de_dst_hlix
   150                          	EXTERN ____sdcc_ll_copy_src_de_dst_hlsp
   151                          	EXTERN ____sdcc_ll_copy_src_deix_dst_hl
   152                          	EXTERN ____sdcc_ll_copy_src_deix_dst_hlix
   153                          	EXTERN ____sdcc_ll_copy_src_deixm_dst_hlsp
   154                          	EXTERN ____sdcc_ll_copy_src_desp_dst_hlsp
   155                          	EXTERN ____sdcc_ll_copy_src_hl_dst_de
   156                          	EXTERN ____sdcc_ll_copy_src_hlsp_dst_de
   157                          	EXTERN ____sdcc_ll_copy_src_hlsp_dst_deixm
   158                          	EXTERN ____sdcc_ll_lsl_hlix_a
   159                          	EXTERN ____sdcc_ll_lsl_mbc_a
   160                          	EXTERN ____sdcc_ll_lsr_hlix_a
   161                          	EXTERN ____sdcc_ll_lsr_mbc_a
   162                          	EXTERN ____sdcc_ll_push_hlix
   163                          	EXTERN ____sdcc_ll_push_mhl
   164                          	EXTERN ____sdcc_ll_sub_de_bc_hl
   165                          	EXTERN ____sdcc_ll_sub_de_bc_hlix
   166                          	EXTERN ____sdcc_ll_sub_de_hlix_bc
   167                          	EXTERN ____sdcc_ll_sub_de_hlix_bcix
   168                          	EXTERN ____sdcc_ll_sub_deix_bc_hl
   169                          	EXTERN ____sdcc_ll_sub_deix_hlix
   170                          	EXTERN ____sdcc_ll_sub_hlix_bc_deix
   171                          	EXTERN ____sdcc_ll_sub_hlix_deix_bc
   172                          	EXTERN ____sdcc_ll_sub_hlix_deix_bcix
   173                          	EXTERN ____sdcc_load_debc_deix
   174                          	EXTERN ____sdcc_load_dehl_deix
   175                          	EXTERN ____sdcc_load_debc_mhl
   176                          	EXTERN ____sdcc_load_hlde_mhl
   177                          	EXTERN ____sdcc_store_dehl_bcix
   178                          	EXTERN ____sdcc_store_debc_hlix
   179                          	EXTERN ____sdcc_store_debc_mhl
   180                          	EXTERN ____sdcc_cpu_pop_ei
   181                          	EXTERN ____sdcc_cpu_pop_ei_jp
   182                          	EXTERN ____sdcc_cpu_push_di
   183                          	EXTERN ____sdcc_outi
   184                          	EXTERN ____sdcc_outi_128
   185                          	EXTERN ____sdcc_outi_256
   186                          	EXTERN ____sdcc_ldi
   187                          	EXTERN ____sdcc_ldi_128
   188                          	EXTERN ____sdcc_ldi_256
   189                          	EXTERN ____sdcc_4_copy_srcd_hlix_dst_deix
   190                          	EXTERN ____sdcc_4_and_src_mbc_mhl_dst_deix
   191                          	EXTERN ____sdcc_4_or_src_mbc_mhl_dst_deix
   192                          	EXTERN ____sdcc_4_xor_src_mbc_mhl_dst_deix
   193                          	EXTERN ____sdcc_4_or_src_dehl_dst_bcix
   194                          	EXTERN ____sdcc_4_xor_src_dehl_dst_bcix
   195                          	EXTERN ____sdcc_4_and_src_dehl_dst_bcix
   196                          	EXTERN ____sdcc_4_xor_src_mbc_mhl_dst_debc
   197                          	EXTERN ____sdcc_4_or_src_mbc_mhl_dst_debc
   198                          	EXTERN ____sdcc_4_and_src_mbc_mhl_dst_debc
   199                          	EXTERN ____sdcc_4_cpl_src_mhl_dst_debc
   200                          	EXTERN ____sdcc_4_xor_src_debc_mhl_dst_debc
   201                          	EXTERN ____sdcc_4_or_src_debc_mhl_dst_debc
   202                          	EXTERN ____sdcc_4_and_src_debc_mhl_dst_debc
   203                          	EXTERN ____sdcc_4_and_src_debc_hlix_dst_debc
   204                          	EXTERN ____sdcc_4_or_src_debc_hlix_dst_debc
   205                          	EXTERN ____sdcc_4_xor_src_debc_hlix_dst_debc
   206                          
   207                          ;--------------------------------------------------------
   208                          ; Public variables in this module
   209                          ;--------------------------------------------------------
   210                          	GLOBAL _distance_ref_point
   211                          	GLOBAL _transition_idle
   212                          	GLOBAL _transition_serve_ready
   213                          	GLOBAL _transition_receive_serve
   214                          	GLOBAL _transition_serve_ball_up
   215                          	GLOBAL _transition_front_walk
   216                          	GLOBAL _transition_serve_hit_ball
   217                          	GLOBAL _transition_hit_ball
   218                          	GLOBAL _transition_touch
   219                          ;--------------------------------------------------------
   220                          ; Externals used
   221                          ;--------------------------------------------------------
   222                          	GLOBAL _channel_b_remaining_length
   223                          	GLOBAL _is_sound_playing_channel_b
   224                          	GLOBAL _is_sound_playing
   225                          	GLOBAL _play_sound_channel_b
   226                          	GLOBAL _play_sound
   227                          	GLOBAL _sound_interrupt_handler
   228                          	GLOBAL _init_sound
   229                          	GLOBAL _hide_ball
   230                          	GLOBAL _update_screen
   231                          	GLOBAL _ball_trajectory_points_at_service
   232                          	GLOBAL _ball_trajectory_points
   233                          	GLOBAL _set_ball_speed_at_drive
   234                          	GLOBAL _transition_lateral_move
   235                          	GLOBAL _valid_area
   236                          	GLOBAL _service_area
   237                          	GLOBAL _get_serving_player
   238                          	GLOBAL _is_ad_service
   239                          	GLOBAL _start_match
   240                          	GLOBAL _event_player_touch
   241                          	GLOBAL _event_net_touched
   242                          	GLOBAL _event_player_hit
   243                          	GLOBAL _event_ball_bounced
   244                          	GLOBAL _update_entities
   245                          	GLOBAL _closest_type_of_hit
   246                          	GLOBAL _ball_at_reach
   247                          	GLOBAL _set_player_status
   248                          	GLOBAL _get_player
   249                          	GLOBAL _update_players
   250                          	GLOBAL _init_controls
   251                          	GLOBAL _diplay_profile
   252                          	GLOBAL _in_mouse_kempston_wheel_delta
   253                          	GLOBAL _in_mouse_kempston_wheel
   254                          	GLOBAL _in_mouse_kempston_callee
   255                          	GLOBAL _in_mouse_kempston
   256                          	GLOBAL _in_mouse_kempston_setpos_callee
   257                          	GLOBAL _in_mouse_kempston_setpos
   258                          	GLOBAL _in_mouse_kempston_reset
   259                          	GLOBAL _in_mouse_kempston_init
   260                          	GLOBAL _in_mouse_amx_wheel_delta
   261                          	GLOBAL _in_mouse_amx_wheel
   262                          	GLOBAL _in_mouse_amx_callee
   263                          	GLOBAL _in_mouse_amx
   264                          	GLOBAL _in_mouse_amx_setpos_callee
   265                          	GLOBAL _in_mouse_amx_setpos
   266                          	GLOBAL _in_mouse_amx_reset
   267                          	GLOBAL _in_mouse_amx_init_callee
   268                          	GLOBAL _in_mouse_amx_init
   269                          	GLOBAL _in_stick_sinclair2
   270                          	GLOBAL _in_stick_sinclair1
   271                          	GLOBAL _in_stick_kempston
   272                          	GLOBAL _in_stick_fuller
   273                          	GLOBAL _in_stick_cursor
   274                          	GLOBAL _in_stick_keyboard_fastcall
   275                          	GLOBAL _in_stick_keyboard
   276                          	GLOBAL _in_wait_nokey
   277                          	GLOBAL _in_wait_key
   278                          	GLOBAL _in_test_key
   279                          	GLOBAL _in_pause_fastcall
   280                          	GLOBAL _in_pause
   281                          	GLOBAL _in_key_scancode_fastcall
   282                          	GLOBAL _in_key_scancode
   283                          	GLOBAL _in_key_pressed_fastcall
   284                          	GLOBAL _in_key_pressed
   285                          	GLOBAL _in_inkey
   286                          	GLOBAL _xy_in_boundary
   287                          	GLOBAL _point_in_boundary
   288                          	GLOBAL _x_projection
   289                          	GLOBAL _ball_future_x_and_height
   290                          	GLOBAL _set_ball_velocity_net_height
   291                          	GLOBAL _set_lob_ball_velocity
   292                          	GLOBAL _update_ball
   293                          	GLOBAL _poly_callee
   294                          	GLOBAL _poly
   295                          	GLOBAL _exp10_fastcall
   296                          	GLOBAL _exp10
   297                          	GLOBAL _mul10u_fastcall
   298                          	GLOBAL _mul10u
   299                          	GLOBAL _mul2_fastcall
   300                          	GLOBAL _mul2
   301                          	GLOBAL _div2_fastcall
   302                          	GLOBAL _div2
   303                          	GLOBAL _invsqrt_fastcall
   304                          	GLOBAL _invsqrt
   305                          	GLOBAL _inv_fastcall
   306                          	GLOBAL _inv
   307                          	GLOBAL _sqr_fastcall
   308                          	GLOBAL _sqr
   309                          	GLOBAL _neg_fastcall
   310                          	GLOBAL _neg
   311                          	GLOBAL _isunordered_callee
   312                          	GLOBAL _isunordered
   313                          	GLOBAL _islessgreater_callee
   314                          	GLOBAL _islessgreater
   315                          	GLOBAL _islessequal_callee
   316                          	GLOBAL _islessequal
   317                          	GLOBAL _isless_callee
   318                          	GLOBAL _isless
   319                          	GLOBAL _isgreaterequal_callee
   320                          	GLOBAL _isgreaterequal
   321                          	GLOBAL _isgreater_callee
   322                          	GLOBAL _isgreater
   323                          	GLOBAL _fma_callee
   324                          	GLOBAL _fma
   325                          	GLOBAL _fmin_callee
   326                          	GLOBAL _fmin
   327                          	GLOBAL _fmax_callee
   328                          	GLOBAL _fmax
   329                          	GLOBAL _fdim_callee
   330                          	GLOBAL _fdim
   331                          	GLOBAL _nexttoward_callee
   332                          	GLOBAL _nexttoward
   333                          	GLOBAL _nextafter_callee
   334                          	GLOBAL _nextafter
   335                          	GLOBAL _nan_fastcall
   336                          	GLOBAL _nan
   337                          	GLOBAL _copysign_callee
   338                          	GLOBAL _copysign
   339                          	GLOBAL _remquo_callee
   340                          	GLOBAL _remquo
   341                          	GLOBAL _remainder_callee
   342                          	GLOBAL _remainder
   343                          	GLOBAL _fmod_callee
   344                          	GLOBAL _fmod
   345                          	GLOBAL _modf_callee
   346                          	GLOBAL _modf
   347                          	GLOBAL _trunc_fastcall
   348                          	GLOBAL _trunc
   349                          	GLOBAL _lround_fastcall
   350                          	GLOBAL _lround
   351                          	GLOBAL _round_fastcall
   352                          	GLOBAL _round
   353                          	GLOBAL _lrint_fastcall
   354                          	GLOBAL _lrint
   355                          	GLOBAL _rint_fastcall
   356                          	GLOBAL _rint
   357                          	GLOBAL _nearbyint_fastcall
   358                          	GLOBAL _nearbyint
   359                          	GLOBAL _floor_fastcall
   360                          	GLOBAL _floor
   361                          	GLOBAL _ceil_fastcall
   362                          	GLOBAL _ceil
   363                          	GLOBAL _tgamma_fastcall
   364                          	GLOBAL _tgamma
   365                          	GLOBAL _lgamma_fastcall
   366                          	GLOBAL _lgamma
   367                          	GLOBAL _erfc_fastcall
   368                          	GLOBAL _erfc
   369                          	GLOBAL _erf_fastcall
   370                          	GLOBAL _erf
   371                          	GLOBAL _cbrt_fastcall
   372                          	GLOBAL _cbrt
   373                          	GLOBAL _sqrt_fastcall
   374                          	GLOBAL _sqrt
   375                          	GLOBAL _pow_callee
   376                          	GLOBAL _pow
   377                          	GLOBAL _hypot_callee
   378                          	GLOBAL _hypot
   379                          	GLOBAL _fabs_fastcall
   380                          	GLOBAL _fabs
   381                          	GLOBAL _logb_fastcall
   382                          	GLOBAL _logb
   383                          	GLOBAL _log2_fastcall
   384                          	GLOBAL _log2
   385                          	GLOBAL _log1p_fastcall
   386                          	GLOBAL _log1p
   387                          	GLOBAL _log10_fastcall
   388                          	GLOBAL _log10
   389                          	GLOBAL _log_fastcall
   390                          	GLOBAL _log
   391                          	GLOBAL _ilogb_fastcall
   392                          	GLOBAL _ilogb
   393                          	GLOBAL _scalbln_callee
   394                          	GLOBAL _scalbln
   395                          	GLOBAL _scalbn_callee
   396                          	GLOBAL _scalbn
   397                          	GLOBAL _ldexp_callee
   398                          	GLOBAL _ldexp
   399                          	GLOBAL _frexp_callee
   400                          	GLOBAL _frexp
   401                          	GLOBAL _expm1_fastcall
   402                          	GLOBAL _expm1
   403                          	GLOBAL _exp2_fastcall
   404                          	GLOBAL _exp2
   405                          	GLOBAL _exp_fastcall
   406                          	GLOBAL _exp
   407                          	GLOBAL _tanh_fastcall
   408                          	GLOBAL _tanh
   409                          	GLOBAL _sinh_fastcall
   410                          	GLOBAL _sinh
   411                          	GLOBAL _cosh_fastcall
   412                          	GLOBAL _cosh
   413                          	GLOBAL _atanh_fastcall
   414                          	GLOBAL _atanh
   415                          	GLOBAL _asinh_fastcall
   416                          	GLOBAL _asinh
   417                          	GLOBAL _acosh_fastcall
   418                          	GLOBAL _acosh
   419                          	GLOBAL _tan_fastcall
   420                          	GLOBAL _tan
   421                          	GLOBAL _sin_fastcall
   422                          	GLOBAL _sin
   423                          	GLOBAL _cos_fastcall
   424                          	GLOBAL _cos
   425                          	GLOBAL _atan2_callee
   426                          	GLOBAL _atan2
   427                          	GLOBAL _atan_fastcall
   428                          	GLOBAL _atan
   429                          	GLOBAL _asin_fastcall
   430                          	GLOBAL _asin
   431                          	GLOBAL _acos_fastcall
   432                          	GLOBAL _acos
   433                          	GLOBAL _env_getenv_callee
   434                          	GLOBAL _env_getenv
   435                          	GLOBAL _getenv_ex_callee
   436                          	GLOBAL _getenv_ex
   437                          	GLOBAL _getenv_fastcall
   438                          	GLOBAL _getenv
   439                          	GLOBAL _mkstemp_ex_fastcall
   440                          	GLOBAL _mkstemp_ex
   441                          	GLOBAL _ulltoa_callee
   442                          	GLOBAL _ulltoa
   443                          	GLOBAL _strtoull_callee
   444                          	GLOBAL _strtoull
   445                          	GLOBAL _strtoll_callee
   446                          	GLOBAL _strtoll
   447                          	GLOBAL _lltoa_callee
   448                          	GLOBAL _lltoa
   449                          	GLOBAL _llabs_callee
   450                          	GLOBAL _llabs
   451                          	GLOBAL __lldivu__callee
   452                          	GLOBAL __lldivu_
   453                          	GLOBAL __lldiv__callee
   454                          	GLOBAL __lldiv_
   455                          	GLOBAL _atoll_callee
   456                          	GLOBAL _atoll
   457                          	GLOBAL _realloc_unlocked_callee
   458                          	GLOBAL _realloc_unlocked
   459                          	GLOBAL _malloc_unlocked_fastcall
   460                          	GLOBAL _malloc_unlocked
   461                          	GLOBAL _free_unlocked_fastcall
   462                          	GLOBAL _free_unlocked
   463                          	GLOBAL _calloc_unlocked_callee
   464                          	GLOBAL _calloc_unlocked
   465                          	GLOBAL _aligned_alloc_unlocked_callee
   466                          	GLOBAL _aligned_alloc_unlocked
   467                          	GLOBAL _realloc_callee
   468                          	GLOBAL _realloc
   469                          	GLOBAL _malloc_fastcall
   470                          	GLOBAL _malloc
   471                          	GLOBAL _free_fastcall
   472                          	GLOBAL _free
   473                          	GLOBAL _calloc_callee
   474                          	GLOBAL _calloc
   475                          	GLOBAL _aligned_alloc_callee
   476                          	GLOBAL _aligned_alloc
   477                          	GLOBAL _utoa_callee
   478                          	GLOBAL _utoa
   479                          	GLOBAL _ultoa_callee
   480                          	GLOBAL _ultoa
   481                          	GLOBAL _system_fastcall
   482                          	GLOBAL _system
   483                          	GLOBAL _strtoul_callee
   484                          	GLOBAL _strtoul
   485                          	GLOBAL _strtol_callee
   486                          	GLOBAL _strtol
   487                          	GLOBAL _strtof_callee
   488                          	GLOBAL _strtof
   489                          	GLOBAL _strtod_callee
   490                          	GLOBAL _strtod
   491                          	GLOBAL _srand_fastcall
   492                          	GLOBAL _srand
   493                          	GLOBAL _rand
   494                          	GLOBAL _quick_exit_fastcall
   495                          	GLOBAL _quick_exit
   496                          	GLOBAL _qsort_callee
   497                          	GLOBAL _qsort
   498                          	GLOBAL _ltoa_callee
   499                          	GLOBAL _ltoa
   500                          	GLOBAL _labs_fastcall
   501                          	GLOBAL _labs
   502                          	GLOBAL _itoa_callee
   503                          	GLOBAL _itoa
   504                          	GLOBAL _ftoh_callee
   505                          	GLOBAL _ftoh
   506                          	GLOBAL _ftog_callee
   507                          	GLOBAL _ftog
   508                          	GLOBAL _ftoe_callee
   509                          	GLOBAL _ftoe
   510                          	GLOBAL _ftoa_callee
   511                          	GLOBAL _ftoa
   512                          	GLOBAL _exit_fastcall
   513                          	GLOBAL _exit
   514                          	GLOBAL _dtoh_callee
   515                          	GLOBAL _dtoh
   516                          	GLOBAL _dtog_callee
   517                          	GLOBAL _dtog
   518                          	GLOBAL _dtoe_callee
   519                          	GLOBAL _dtoe
   520                          	GLOBAL _dtoa_callee
   521                          	GLOBAL _dtoa
   522                          	GLOBAL _bsearch_callee
   523                          	GLOBAL _bsearch
   524                          	GLOBAL _atol_fastcall
   525                          	GLOBAL _atol
   526                          	GLOBAL _atoi_fastcall
   527                          	GLOBAL _atoi
   528                          	GLOBAL _atof_fastcall
   529                          	GLOBAL _atof
   530                          	GLOBAL _atexit_fastcall
   531                          	GLOBAL _atexit
   532                          	GLOBAL _at_quick_exit_fastcall
   533                          	GLOBAL _at_quick_exit
   534                          	GLOBAL _abs_fastcall
   535                          	GLOBAL _abs
   536                          	GLOBAL _abort
   537                          	GLOBAL __strtou__callee
   538                          	GLOBAL __strtou_
   539                          	GLOBAL __strtoi__callee
   540                          	GLOBAL __strtoi_
   541                          	GLOBAL __random_uniform_xor_8__fastcall
   542                          	GLOBAL __random_uniform_xor_8_
   543                          	GLOBAL __random_uniform_xor_32__fastcall
   544                          	GLOBAL __random_uniform_xor_32_
   545                          	GLOBAL __random_uniform_cmwc_8__fastcall
   546                          	GLOBAL __random_uniform_cmwc_8_
   547                          	GLOBAL __shellsort__callee
   548                          	GLOBAL __shellsort_
   549                          	GLOBAL __quicksort__callee
   550                          	GLOBAL __quicksort_
   551                          	GLOBAL __insertion_sort__callee
   552                          	GLOBAL __insertion_sort_
   553                          	GLOBAL __ldivu__callee
   554                          	GLOBAL __ldivu_
   555                          	GLOBAL __ldiv__callee
   556                          	GLOBAL __ldiv_
   557                          	GLOBAL __divu__callee
   558                          	GLOBAL __divu_
   559                          	GLOBAL __div__callee
   560                          	GLOBAL __div_
   561                          	GLOBAL _ref_points
   562                          	GLOBAL _game_state
   563                          	GLOBAL _match_type
   564                          	GLOBAL _score
   565                          	GLOBAL _player_bottom
   566                          	GLOBAL _player_top
   567                          	GLOBAL _game_settings
   568                          	GLOBAL _ppponent_profile
   569                          	GLOBAL _ball
   570                          	GLOBAL _court_boundaries
   571                          ;--------------------------------------------------------
   572                          ; special function registers
   573                          ;--------------------------------------------------------
   574                          ;--------------------------------------------------------
   575                          ; ram data
   576                          ;--------------------------------------------------------
   577                          	SECTION bss_compiler
   578                          ;--------------------------------------------------------
   579                          ; ram data
   580                          ;--------------------------------------------------------
   581                          
   582                          IF 0
   583                          
   584                          ; .area _INITIALIZED removed by z88dk
   585                          
   586                          
   587                          ENDIF
   588                          
   589                          ;--------------------------------------------------------
   590                          ; absolute external ram data
   591                          ;--------------------------------------------------------
   592                          	SECTION IGNORE
   593                          ;--------------------------------------------------------
   594                          ; global & static initialisations
   595                          ;--------------------------------------------------------
   596                          	SECTION code_crt_init
   597                          ;--------------------------------------------------------
   598                          ; Home
   599                          ;--------------------------------------------------------
   600                          	SECTION IGNORE
   601                          ;--------------------------------------------------------
   602                          ; code
   603                          ;--------------------------------------------------------
   604                          	SECTION BANK_8
   605                          ;player_transitions.c:17: set_player_status(player, PS_IDLE);
   606                          ;	---------------------------------
   607                          ; Function transition_idle
   608                          ; ---------------------------------
   609                          _transition_idle:
   610  0000  cd0000            	call	___sdcc_enter_ix
   611                          ;player_transitions.c:19:
   612  0003  af                	xor	a, a
   613  0004  f5                	push	af
   614  0005  33                	inc	sp
   615  0006  dd6e04            	ld	l,(ix+4)
   616  0009  dd6605            	ld	h,(ix+5)
   617  000c  e5                	push	hl
   618  000d  cd0000            	call	_set_player_status
   619  0010  f1                	pop	af
   620  0011  33                	inc	sp
   621                          ;player_transitions.c:20: // Serve
   622  0012  dde1              	pop	ix
   623  0014  c9                	ret
   624                          	SECTION BANK_8
   625                          ;player_transitions.c:23: set_player_status(player, PS_SERVICE_READY);
   626                          ;	---------------------------------
   627                          ; Function transition_serve_ready
   628                          ; ---------------------------------
   629                          _transition_serve_ready:
   630  0015  cd0000            	call	___sdcc_enter_ix
   631  0018  21f8ff            	ld	hl, -8
   632  001b  39                	add	hl, sp
   633  001c  f9                	ld	sp, hl
   634                          ;player_transitions.c:25: bool ad_service = is_ad_service();
   635  001d  3e01              	ld	a,0x01
   636  001f  f5                	push	af
   637  0020  33                	inc	sp
   638  0021  dd6e04            	ld	l,(ix+4)
   639  0024  dd6605            	ld	h,(ix+5)
   640  0027  e5                	push	hl
   641  0028  cd0000            	call	_set_player_status
   642  002b  f1                	pop	af
   643  002c  33                	inc	sp
   644                          ;player_transitions.c:27: bool right_service = player->id ^ ad_service;
   645  002d  cd0000            	call	_is_ad_service
   646  0030  5d                	ld	e, l
   647                          ;player_transitions.c:29: // Set players positions
   648  0031  dd4e04            	ld	c,(ix+4)
   649  0034  dd4605            	ld	b,(ix+5)
   650  0037  0a                	ld	a, (bc)
   651  0038  ab                	xor	a, e
   652  0039  5f                	ld	e, a
   653                          ;player_transitions.c:32: hide_ball();
   654  003a  210a00            	ld	hl,0x000a
   655  003d  09                	add	hl, bc
   656  003e  dd75fc            	ld	(ix-4),l
   657  0041  dd74fd            	ld	(ix-3),h
   658  0044  cb43              	bit	0, e
   659  0046  2804              	jr	Z,l_transition_serve_ready_00103
   660  0048  3eb3              	ld	a,0xb3
   661  004a  1802              	jr	l_transition_serve_ready_00104
   662                          l_transition_serve_ready_00103:
   663  004c  3e8f              	ld	a,0x8f
   664                          l_transition_serve_ready_00104:
   665  004e  c5                	push	bc
   666  004f  f5                	push	af
   667  0050  33                	inc	sp
   668  0051  cd0000            	call	___uchar2fs_callee
   669  0054  01fbff            	ld	bc,-5
   670  0057  cd0000            	call	____sdcc_store_dehl_bcix
   671  005a  dd5efc            	ld	e,(ix-4)
   672  005d  dd56fd            	ld	d,(ix-3)
   673  0060  210200            	ld	hl,2
   674  0063  39                	add	hl, sp
   675  0064  cd0000            	call	____sdcc_4_ldi_nosave_bc
   676  0067  c1                	pop	bc
   677                          ;player_transitions.c:33: // Though hidden, the position and speed of the ball will determine the camera position
   678  0068  210e00            	ld	hl,0x000e
   679  006b  09                	add	hl, bc
   680  006c  dd75fe            	ld	(ix-2),l
   681  006f  dd74ff            	ld	(ix-1),h
   682  0072  0a                	ld	a, (bc)
   683  0073  cb47              	bit	0,a
   684  0075  2004              	jr	NZ,l_transition_serve_ready_00105
   685  0077  3e62              	ld	a,0x62
   686  0079  1802              	jr	l_transition_serve_ready_00106
   687                          l_transition_serve_ready_00105:
   688  007b  3ee0              	ld	a,0xe0
   689                          l_transition_serve_ready_00106:
   690  007d  f5                	push	af
   691  007e  33                	inc	sp
   692  007f  cd0000            	call	___uchar2fs_callee
   693  0082  4d                	ld	c, l
   694  0083  dd6efe            	ld	l,(ix-2)
   695  0086  44                	ld	b,h
   696  0087  dd66ff            	ld	h,(ix-1)
   697  008a  cd0000            	call	____sdcc_store_debc_mhl
   698                          ;player_transitions.c:34: ball.x = player->x;
   699  008d  cd0000            	call	_hide_ball
   700                          ;player_transitions.c:36: ball.v_x = 0;
   701  0090  dd6efc            	ld	l,(ix-4)
   702  0093  dd66fd            	ld	h,(ix-3)
   703  0096  cd0000            	call	____sdcc_load_debc_mhl
   704  0099  ed430000          	ld	(_ball), bc
   705  009d  ed530200          	ld	(_ball+2), de
   706                          ;player_transitions.c:37: ball.v_y = 0;
   707  00a1  dd6efe            	ld	l,(ix-2)
   708  00a4  dd66ff            	ld	h,(ix-1)
   709  00a7  cd0000            	call	____sdcc_load_debc_mhl
   710  00aa  ed430400          	ld	(_ball + 4),bc
   711  00ae  ed530600          	ld	(_ball + 4 + 2),de
   712                          ;player_transitions.c:38: // set_camera_target(x_projection(ball.x, ball.y), ball.y - 48);
   713  00b2  210000            	ld	hl,0x0000
   714  00b5  221000            	ld	(_ball + 16),hl
   715  00b8  221200            	ld	(_ball + 16 + 2),hl
   716                          ;player_transitions.c:39: }
   717  00bb  221400            	ld	(_ball + 20),hl
   718  00be  221600            	ld	(_ball + 20 + 2),hl
   719                          ;player_transitions.c:41: void transition_receive_serve(Player *player)
   720  00c1  ddf9              	ld	sp, ix
   721  00c3  dde1              	pop	ix
   722  00c5  c9                	ret
   723                          ;player_transitions.c:43: set_player_status(player, PS_IDLE);
   724                          ;	---------------------------------
   725                          ; Function transition_receive_serve
   726                          ; ---------------------------------
   727                          _transition_receive_serve:
   728  00c6  cd0000            	call	___sdcc_enter_ix
   729  00c9  f5                	push	af
   730  00ca  f5                	push	af
   731                          ;player_transitions.c:45: bool ad_service = is_ad_service();
   732  00cb  af                	xor	a, a
   733  00cc  f5                	push	af
   734  00cd  33                	inc	sp
   735  00ce  dd6e04            	ld	l,(ix+4)
   736  00d1  dd6605            	ld	h,(ix+5)
   737  00d4  e5                	push	hl
   738  00d5  cd0000            	call	_set_player_status
   739  00d8  f1                	pop	af
   740  00d9  33                	inc	sp
   741                          ;player_transitions.c:47: player->x = right_service_receive ? CENTER_LINE_RIGHT + PLAYER_WIDTH / 2 : CENTER_LINE_LEFT - PLAYER_WIDTH / 2;
   742  00da  cd0000            	call	_is_ad_service
   743  00dd  5d                	ld	e, l
   744                          ;player_transitions.c:48: player->y = player->id == PLAYER_TOP ? BASELINE_TOP - 2 : BASELINE_BOTTOM + 4;
   745  00de  dd4e04            	ld	c,(ix+4)
   746  00e1  dd4605            	ld	b,(ix+5)
   747  00e4  0a                	ld	a, (bc)
   748  00e5  ab                	xor	a, e
   749  00e6  5f                	ld	e, a
   750                          ;player_transitions.c:49: }
   751  00e7  210a00            	ld	hl,0x000a
   752  00ea  09                	add	hl, bc
   753  00eb  cb43              	bit	0, e
   754  00ed  2804              	jr	Z,l_transition_receive_serve_00103
   755  00ef  3eb3              	ld	a,0xb3
   756  00f1  1802              	jr	l_transition_receive_serve_00104
   757                          l_transition_receive_serve_00103:
   758  00f3  3e8f              	ld	a,0x8f
   759                          l_transition_receive_serve_00104:
   760  00f5  e5                	push	hl
   761  00f6  c5                	push	bc
   762  00f7  f5                	push	af
   763  00f8  33                	inc	sp
   764  00f9  cd0000            	call	___uchar2fs_callee
   765  00fc  01ffff            	ld	bc,-1
   766  00ff  cd0000            	call	____sdcc_store_dehl_bcix
   767  0102  c1                	pop	bc
   768  0103  e1                	pop	hl
   769  0104  c5                	push	bc
   770  0105  eb                	ex	de,hl
   771  0106  210200            	ld	hl,2
   772  0109  39                	add	hl, sp
   773  010a  cd0000            	call	____sdcc_4_ldi_nosave_bc
   774  010d  c1                	pop	bc
   775                          ;player_transitions.c:50:
   776  010e  210e00            	ld	hl,0x000e
   777  0111  09                	add	hl, bc
   778  0112  0a                	ld	a, (bc)
   779  0113  cb47              	bit	0,a
   780  0115  2004              	jr	NZ,l_transition_receive_serve_00105
   781  0117  3e62              	ld	a,0x62
   782  0119  1802              	jr	l_transition_receive_serve_00106
   783                          l_transition_receive_serve_00105:
   784  011b  3ee0              	ld	a,0xe0
   785                          l_transition_receive_serve_00106:
   786  011d  e5                	push	hl
   787  011e  f5                	push	af
   788  011f  33                	inc	sp
   789  0120  cd0000            	call	___uchar2fs_callee
   790  0123  4d                	ld	c, l
   791  0124  44                	ld	b, h
   792  0125  e1                	pop	hl
   793  0126  cd0000            	call	____sdcc_store_debc_mhl
   794                          ;player_transitions.c:51: void transition_serve_ball_up(Player *player)
   795  0129  ddf9              	ld	sp, ix
   796  012b  dde1              	pop	ix
   797  012d  c9                	ret
   798                          ;player_transitions.c:53: set_player_status(player, PS_SERVICE_BALL_UP);
   799                          ;	---------------------------------
   800                          ; Function transition_serve_ball_up
   801                          ; ---------------------------------
   802                          _transition_serve_ball_up:
   803  012e  cd0000            	call	___sdcc_enter_ix
   804                          ;player_transitions.c:55:
   805  0131  3e02              	ld	a,0x02
   806  0133  f5                	push	af
   807  0134  33                	inc	sp
   808  0135  dd6e04            	ld	l,(ix+4)
   809  0138  dd6605            	ld	h,(ix+5)
   810  013b  e5                	push	hl
   811  013c  cd0000            	call	_set_player_status
   812  013f  f1                	pop	af
   813  0140  33                	inc	sp
   814                          ;player_transitions.c:56: void transition_front_walk(Player *player)
   815  0141  dde1              	pop	ix
   816  0143  c9                	ret
   817                          ;player_transitions.c:58: player->state_timer = WALK_DURATION;
   818                          ;	---------------------------------
   819                          ; Function transition_front_walk
   820                          ; ---------------------------------
   821                          _transition_front_walk:
   822  0144  cd0000            	call	___sdcc_enter_ix
   823                          ;player_transitions.c:60: }
   824  0147  dd4e04            	ld	c,(ix+4)
   825  014a  dd4605            	ld	b,(ix+5)
   826  014d  210900            	ld	hl,0x0009
   827  0150  09                	add	hl, bc
   828  0151  360a              	ld	(hl),0x0a
   829                          ;player_transitions.c:61:
   830  0153  3e06              	ld	a,0x06
   831  0155  f5                	push	af
   832  0156  33                	inc	sp
   833  0157  c5                	push	bc
   834  0158  cd0000            	call	_set_player_status
   835  015b  f1                	pop	af
   836  015c  33                	inc	sp
   837                          ;player_transitions.c:62: void transition_serve_hit_ball(Player *player)
   838  015d  dde1              	pop	ix
   839  015f  c9                	ret
   840                          ;player_transitions.c:64: play_sound_channel_b(SOUND_UMPF_DIEGO_1 + 2 * player->id + ((rand() / 16) % 2));
   841                          ;	---------------------------------
   842                          ; Function transition_serve_hit_ball
   843                          ; ---------------------------------
   844                          _transition_serve_hit_ball:
   845  0160  cd0000            	call	___sdcc_enter_ix
   846  0163  f5                	push	af
   847  0164  3b                	dec	sp
   848                          ;player_transitions.c:66: set_player_status(player, PS_SERVICE_BALL_HIT);
   849  0165  dd5e04            	ld	e,(ix+4)
   850  0168  dd5605            	ld	d,(ix+5)
   851  016b  1a                	ld	a, (de)
   852  016c  87                	add	a, a
   853  016d  c625              	add	a,0x25
   854  016f  dd77fd            	ld	(ix-3),a
   855  0172  d5                	push	de
   856  0173  cd0000            	call	_rand
   857  0176  4d                	ld	c, l
   858  0177  44                	ld	b, h
   859  0178  d1                	pop	de
   860  0179  dd71fe            	ld	(ix-2),c
   861  017c  dd70ff            	ld	(ix-1),b
   862  017f  cb78              	bit	7, b
   863  0181  280a              	jr	Z,l_transition_serve_hit_ball_00103
   864  0183  210f00            	ld	hl,0x000f
   865  0186  09                	add	hl, bc
   866  0187  dd75fe            	ld	(ix-2),l
   867  018a  dd74ff            	ld	(ix-1),h
   868                          l_transition_serve_hit_ball_00103:
   869  018d  dd6efe            	ld	l,(ix-2)
   870  0190  dd66ff            	ld	h,(ix-1)
   871  0193  0604              	ld	b,0x04
   872                          l_transition_serve_hit_ball_00109:
   873  0195  cb2c              	sra	h
   874  0197  cb1d              	rr	l
   875  0199  10fa              	djnz	l_transition_serve_hit_ball_00109
   876  019b  d5                	push	de
   877  019c  010200            	ld	bc,0x0002
   878  019f  c5                	push	bc
   879  01a0  e5                	push	hl
   880  01a1  cd0000            	call	__modsint_callee
   881  01a4  d1                	pop	de
   882  01a5  7d                	ld	a, l
   883  01a6  dd86fd            	add	a,(ix-3)
   884  01a9  6f                	ld	l, a
   885  01aa  d5                	push	de
   886  01ab  cd0000            	call	_play_sound_channel_b
   887  01ae  d1                	pop	de
   888                          ;player_transitions.c:67: }
   889  01af  4b                	ld	c, e
   890  01b0  42                	ld	b, d
   891  01b1  03                	inc	bc
   892  01b2  03                	inc	bc
   893  01b3  6b                	ld	l, e
   894  01b4  62                	ld	h, d
   895  01b5  23                	inc	hl
   896  01b6  7e                	ld	a, (hl)
   897  01b7  02                	ld	(bc), a
   898                          ;player_transitions.c:68:
   899  01b8  3e03              	ld	a,0x03
   900  01ba  f5                	push	af
   901  01bb  33                	inc	sp
   902  01bc  d5                	push	de
   903  01bd  cd0000            	call	_set_player_status
   904                          ;player_transitions.c:69: float distance_ref_point(RefPoint *point, float offset_x, float offset_h)
   905  01c0  ddf9              	ld	sp,ix
   906  01c2  dde1              	pop	ix
   907  01c4  c9                	ret
   908                          ;player_transitions.c:71: const float x_distance = point->x - offset_x;
   909                          ;	---------------------------------
   910                          ; Function distance_ref_point
   911                          ; ---------------------------------
   912                          _distance_ref_point:
   913  01c5  cd0000            	call	___sdcc_enter_ix
   914  01c8  21faff            	ld	hl, -6
   915  01cb  39                	add	hl, sp
   916  01cc  f9                	ld	sp, hl
   917                          ;player_transitions.c:73: return x_distance * x_distance + h_distance * h_distance;
   918  01cd  dd7e04            	ld	a,(ix+4)
   919  01d0  dd77fa            	ld	(ix-6),a
   920  01d3  dd7e05            	ld	a,(ix+5)
   921  01d6  dd77fb            	ld	(ix-5),a
   922  01d9  e1                	pop	hl
   923  01da  7e                	ld	a,(hl)
   924  01db  e5                	push	hl
   925  01dc  4f                	ld	c, a
   926  01dd  07                	rlca
   927  01de  9f                	sbc	a, a
   928  01df  47                	ld	b, a
   929  01e0  c5                	push	bc
   930  01e1  cd0000            	call	___sint2fs_callee
   931  01e4  4d                	ld	c, l
   932  01e5  44                	ld	b, h
   933  01e6  210600            	ld	hl,6
   934  01e9  cd0000            	call	____sdcc_4_push_hlix
   935  01ec  d5                	push	de
   936  01ed  c5                	push	bc
   937  01ee  cd0000            	call	___fssub_callee
   938  01f1  01ffff            	ld	bc,-1
   939  01f4  cd0000            	call	____sdcc_store_dehl_bcix
   940                          ;player_transitions.c:74: }
   941  01f7  c1                	pop	bc
   942  01f8  c5                	push	bc
   943  01f9  03                	inc	bc
   944  01fa  03                	inc	bc
   945  01fb  0a                	ld	a, (bc)
   946  01fc  4f                	ld	c, a
   947  01fd  07                	rlca
   948  01fe  9f                	sbc	a, a
   949  01ff  47                	ld	b, a
   950  0200  c5                	push	bc
   951  0201  cd0000            	call	___sint2fs_callee
   952  0204  4d                	ld	c, l
   953  0205  44                	ld	b, h
   954  0206  210a00            	ld	hl,10
   955  0209  cd0000            	call	____sdcc_4_push_hlix
   956  020c  d5                	push	de
   957  020d  c5                	push	bc
   958  020e  cd0000            	call	___fssub
   959  0211  f1                	pop	af
   960  0212  f1                	pop	af
   961  0213  f1                	pop	af
   962                          ;player_transitions.c:75:
   963  0214  e3                	ex	(sp),hl
   964  0215  d5                	push	de
   965  0216  dd4efe            	ld	c,(ix-2)
   966  0219  dd46ff            	ld	b,(ix-1)
   967  021c  c5                	push	bc
   968  021d  dd4efc            	ld	c,(ix-4)
   969  0220  dd46fd            	ld	b,(ix-3)
   970  0223  c5                	push	bc
   971  0224  dd4efe            	ld	c,(ix-2)
   972  0227  dd46ff            	ld	b,(ix-1)
   973  022a  c5                	push	bc
   974  022b  dd4efc            	ld	c,(ix-4)
   975  022e  dd46fd            	ld	b,(ix-3)
   976  0231  c5                	push	bc
   977  0232  cd0000            	call	___fsmul_callee
   978  0235  01ffff            	ld	bc,-1
   979  0238  cd0000            	call	____sdcc_store_dehl_bcix
   980  023b  d1                	pop	de
   981  023c  e1                	pop	hl
   982  023d  d5                	push	de
   983  023e  e5                	push	hl
   984  023f  d5                	push	de
   985  0240  e5                	push	hl
   986  0241  cd0000            	call	___fsmul_callee
   987  0244  d5                	push	de
   988  0245  e5                	push	hl
   989  0246  21fcff            	ld	hl,-4
   990  0249  cd0000            	call	____sdcc_4_push_hlix
   991  024c  cd0000            	call	___fsadd
   992                          ;player_transitions.c:76: void transition_hit_ball(Player *player)
   993  024f  ddf9              	ld	sp,ix
   994  0251  dde1              	pop	ix
   995  0253  c9                	ret
   996                          ;player_transitions.c:78: player->control_at_hit = player->control;
   997                          ;	---------------------------------
   998                          ; Function transition_hit_ball
   999                          ; ---------------------------------
  1000                          _transition_hit_ball:
  1001  0254  cd0000            	call	___sdcc_enter_ix
  1002                          ;player_transitions.c:80: PlayerState hit = closest_type_of_hit(player);
  1003  0257  dd4e04            	ld	c,(ix+4)
  1004  025a  dd4605            	ld	b,(ix+5)
  1005  025d  59                	ld	e, c
  1006  025e  50                	ld	d, b
  1007  025f  13                	inc	de
  1008  0260  13                	inc	de
  1009  0261  69                	ld	l, c
  1010  0262  60                	ld	h, b
  1011  0263  23                	inc	hl
  1012  0264  7e                	ld	a, (hl)
  1013  0265  12                	ld	(de), a
  1014                          ;player_transitions.c:82: set_player_status(player, hit);
  1015  0266  c5                	push	bc
  1016  0267  cd0000            	call	_closest_type_of_hit
  1017  026a  f1                	pop	af
  1018  026b  7d                	ld	a, l
  1019                          ;player_transitions.c:84:
  1020  026c  f5                	push	af
  1021  026d  33                	inc	sp
  1022  026e  dd6e04            	ld	l,(ix+4)
  1023  0271  dd6605            	ld	h,(ix+5)
  1024  0274  e5                	push	hl
  1025  0275  cd0000            	call	_set_player_status
  1026  0278  f1                	pop	af
  1027  0279  33                	inc	sp
  1028                          ;player_transitions.c:85: void transition_touch(Player *player)
  1029  027a  dde1              	pop	ix
  1030  027c  c9                	ret
  1031                          ;player_transitions.c:87: set_player_status(player, PS_TOUCH);
  1032                          ;	---------------------------------
  1033                          ; Function transition_touch
  1034                          ; ---------------------------------
  1035                          _transition_touch:
  1036  027d  cd0000            	call	___sdcc_enter_ix
  1037                          ;player_transitions.c:89: }
  1038  0280  3e08              	ld	a,0x08
  1039  0282  f5                	push	af
  1040  0283  33                	inc	sp
  1041  0284  dd6e04            	ld	l,(ix+4)
  1042  0287  dd6605            	ld	h,(ix+5)
  1043  028a  e5                	push	hl
  1044  028b  cd0000            	call	_set_player_status
  1045  028e  f1                	pop	af
  1046  028f  33                	inc	sp
  1047                          ;player_transitions.c:90: ERROR: no line number 90 in file player_transitions.c
  1048  0290  2e2a              	ld	l,0x2a
  1049                          ;player_transitions.c:91: ERROR: no line number 91 in file player_transitions.c
  1050  0292  dde1              	pop	ix
  1051  0294  c30000            	jp	_play_sound_channel_b
  1052                          	SECTION IGNORE
  1053                          
