/tmp/tmpMc7wlNzB.asm:
     1                          MODULE umpire_c
     2                          LINE 0, "umpire.c"
umpire.c:
                                
     1                          ;--------------------------------------------------------
     2                          ; File Created by SDCC : free open source ISO C Compiler
     3                          ; Version 4.3.0 #14210 (Mac OS X ppc)
     4                          ;--------------------------------------------------------
     5                          	.zxn
     6                          ; Processed by Z88DK
     7                          ;--------------------------------------------------------
     8                          
     9                          	EXTERN __divschar
    10                          	EXTERN __divschar_callee
    11                          	EXTERN __divsint
    12                          	EXTERN __divsint_callee
    13                          	EXTERN __divslong
    14                          	EXTERN __divslong_callee
    15                          	EXTERN __divslonglong
    16                          	EXTERN __divslonglong_callee
    17                          	EXTERN __divsuchar
    18                          	EXTERN __divsuchar_callee
    19                          	EXTERN __divuchar
    20                          	EXTERN __divuchar_callee
    21                          	EXTERN __divuint
    22                          	EXTERN __divuint_callee
    23                          	EXTERN __divulong
    24                          	EXTERN __divulong_callee
    25                          	EXTERN __divulonglong
    26                          	EXTERN __divulonglong_callee
    27                          	EXTERN __divuschar
    28                          	EXTERN __divuschar_callee
    29                          	EXTERN __modschar
    30                          	EXTERN __modschar_callee
    31                          	EXTERN __modsint
    32                          	EXTERN __modsint_callee
    33                          	EXTERN __modslong
    34                          	EXTERN __modslong_callee
    35                          	EXTERN __modslonglong
    36                          	EXTERN __modslonglong_callee
    37                          	EXTERN __modsuchar
    38                          	EXTERN __modsuchar_callee
    39                          	EXTERN __moduchar
    40                          	EXTERN __moduchar_callee
    41                          	EXTERN __moduint
    42                          	EXTERN __moduint_callee
    43                          	EXTERN __modulong
    44                          	EXTERN __modulong_callee
    45                          	EXTERN __modulonglong
    46                          	EXTERN __modulonglong_callee
    47                          	EXTERN __moduschar
    48                          	EXTERN __moduschar_callee
    49                          	EXTERN __mulint
    50                          	EXTERN __mulint_callee
    51                          	EXTERN __mullong
    52                          	EXTERN __mullong_callee
    53                          	EXTERN __mullonglong
    54                          	EXTERN __mullonglong_callee
    55                          	EXTERN __mulschar
    56                          	EXTERN __mulschar_callee
    57                          	EXTERN __mulsuchar
    58                          	EXTERN __mulsuchar_callee
    59                          	EXTERN __muluchar
    60                          	EXTERN __muluchar_callee
    61                          	EXTERN __muluschar
    62                          	EXTERN __muluschar_callee
    63                          	EXTERN __rlslonglong
    64                          	EXTERN __rlslonglong_callee
    65                          	EXTERN __rlulonglong
    66                          	EXTERN __rlulonglong_callee
    67                          	EXTERN __rrslonglong
    68                          	EXTERN __rrslonglong_callee
    69                          	EXTERN __rrulonglong
    70                          	EXTERN __rrulonglong_callee
    71                          	EXTERN ___mulsint2slong
    72                          	EXTERN ___mulsint2slong_callee
    73                          	EXTERN ___muluint2ulong
    74                          	EXTERN ___muluint2ulong_callee
    75                          	EXTERN ___sdcc_call_hl
    76                          	EXTERN ___sdcc_call_iy
    77                          	EXTERN ___sdcc_enter_ix
    78                          	EXTERN banked_call
    79                          	EXTERN _banked_ret
    80                          	EXTERN ___fs2schar
    81                          	EXTERN ___fs2schar_callee
    82                          	EXTERN ___fs2sint
    83                          	EXTERN ___fs2sint_callee
    84                          	EXTERN ___fs2slong
    85                          	EXTERN ___fs2slong_callee
    86                          	EXTERN ___fs2slonglong
    87                          	EXTERN ___fs2slonglong_callee
    88                          	EXTERN ___fs2uchar
    89                          	EXTERN ___fs2uchar_callee
    90                          	EXTERN ___fs2uint
    91                          	EXTERN ___fs2uint_callee
    92                          	EXTERN ___fs2ulong
    93                          	EXTERN ___fs2ulong_callee
    94                          	EXTERN ___fs2ulonglong
    95                          	EXTERN ___fs2ulonglong_callee
    96                          	EXTERN ___fsadd
    97                          	EXTERN ___fsadd_callee
    98                          	EXTERN ___fsdiv
    99                          	EXTERN ___fsdiv_callee
   100                          	EXTERN ___fseq
   101                          	EXTERN ___fseq_callee
   102                          	EXTERN ___fsgt
   103                          	EXTERN ___fsgt_callee
   104                          	EXTERN ___fslt
   105                          	EXTERN ___fslt_callee
   106                          	EXTERN ___fsmul
   107                          	EXTERN ___fsmul_callee
   108                          	EXTERN ___fsneq
   109                          	EXTERN ___fsneq_callee
   110                          	EXTERN ___fssub
   111                          	EXTERN ___fssub_callee
   112                          	EXTERN ___schar2fs
   113                          	EXTERN ___schar2fs_callee
   114                          	EXTERN ___sint2fs
   115                          	EXTERN ___sint2fs_callee
   116                          	EXTERN ___slong2fs
   117                          	EXTERN ___slong2fs_callee
   118                          	EXTERN ___slonglong2fs
   119                          	EXTERN ___slonglong2fs_callee
   120                          	EXTERN ___uchar2fs
   121                          	EXTERN ___uchar2fs_callee
   122                          	EXTERN ___uint2fs
   123                          	EXTERN ___uint2fs_callee
   124                          	EXTERN ___ulong2fs
   125                          	EXTERN ___ulong2fs_callee
   126                          	EXTERN ___ulonglong2fs
   127                          	EXTERN ___ulonglong2fs_callee
   128                          	EXTERN ____sdcc_2_copy_src_mhl_dst_deix
   129                          	EXTERN ____sdcc_2_copy_src_mhl_dst_bcix
   130                          	EXTERN ____sdcc_4_copy_src_mhl_dst_deix
   131                          	EXTERN ____sdcc_4_copy_src_mhl_dst_bcix
   132                          	EXTERN ____sdcc_4_copy_src_mhl_dst_mbc
   133                          	EXTERN ____sdcc_4_ldi_nosave_bc
   134                          	EXTERN ____sdcc_4_ldi_save_bc
   135                          	EXTERN ____sdcc_4_push_hlix
   136                          	EXTERN ____sdcc_4_push_mhl
   137                          	EXTERN ____sdcc_lib_setmem_hl
   138                          	EXTERN ____sdcc_ll_add_de_bc_hl
   139                          	EXTERN ____sdcc_ll_add_de_bc_hlix
   140                          	EXTERN ____sdcc_ll_add_de_hlix_bc
   141                          	EXTERN ____sdcc_ll_add_de_hlix_bcix
   142                          	EXTERN ____sdcc_ll_add_deix_bc_hl
   143                          	EXTERN ____sdcc_ll_add_deix_hlix
   144                          	EXTERN ____sdcc_ll_add_hlix_bc_deix
   145                          	EXTERN ____sdcc_ll_add_hlix_deix_bc
   146                          	EXTERN ____sdcc_ll_add_hlix_deix_bcix
   147                          	EXTERN ____sdcc_ll_asr_hlix_a
   148                          	EXTERN ____sdcc_ll_asr_mbc_a
   149                          	EXTERN ____sdcc_ll_copy_src_de_dst_hlix
   150                          	EXTERN ____sdcc_ll_copy_src_de_dst_hlsp
   151                          	EXTERN ____sdcc_ll_copy_src_deix_dst_hl
   152                          	EXTERN ____sdcc_ll_copy_src_deix_dst_hlix
   153                          	EXTERN ____sdcc_ll_copy_src_deixm_dst_hlsp
   154                          	EXTERN ____sdcc_ll_copy_src_desp_dst_hlsp
   155                          	EXTERN ____sdcc_ll_copy_src_hl_dst_de
   156                          	EXTERN ____sdcc_ll_copy_src_hlsp_dst_de
   157                          	EXTERN ____sdcc_ll_copy_src_hlsp_dst_deixm
   158                          	EXTERN ____sdcc_ll_lsl_hlix_a
   159                          	EXTERN ____sdcc_ll_lsl_mbc_a
   160                          	EXTERN ____sdcc_ll_lsr_hlix_a
   161                          	EXTERN ____sdcc_ll_lsr_mbc_a
   162                          	EXTERN ____sdcc_ll_push_hlix
   163                          	EXTERN ____sdcc_ll_push_mhl
   164                          	EXTERN ____sdcc_ll_sub_de_bc_hl
   165                          	EXTERN ____sdcc_ll_sub_de_bc_hlix
   166                          	EXTERN ____sdcc_ll_sub_de_hlix_bc
   167                          	EXTERN ____sdcc_ll_sub_de_hlix_bcix
   168                          	EXTERN ____sdcc_ll_sub_deix_bc_hl
   169                          	EXTERN ____sdcc_ll_sub_deix_hlix
   170                          	EXTERN ____sdcc_ll_sub_hlix_bc_deix
   171                          	EXTERN ____sdcc_ll_sub_hlix_deix_bc
   172                          	EXTERN ____sdcc_ll_sub_hlix_deix_bcix
   173                          	EXTERN ____sdcc_load_debc_deix
   174                          	EXTERN ____sdcc_load_dehl_deix
   175                          	EXTERN ____sdcc_load_debc_mhl
   176                          	EXTERN ____sdcc_load_hlde_mhl
   177                          	EXTERN ____sdcc_store_dehl_bcix
   178                          	EXTERN ____sdcc_store_debc_hlix
   179                          	EXTERN ____sdcc_store_debc_mhl
   180                          	EXTERN ____sdcc_cpu_pop_ei
   181                          	EXTERN ____sdcc_cpu_pop_ei_jp
   182                          	EXTERN ____sdcc_cpu_push_di
   183                          	EXTERN ____sdcc_outi
   184                          	EXTERN ____sdcc_outi_128
   185                          	EXTERN ____sdcc_outi_256
   186                          	EXTERN ____sdcc_ldi
   187                          	EXTERN ____sdcc_ldi_128
   188                          	EXTERN ____sdcc_ldi_256
   189                          	EXTERN ____sdcc_4_copy_srcd_hlix_dst_deix
   190                          	EXTERN ____sdcc_4_and_src_mbc_mhl_dst_deix
   191                          	EXTERN ____sdcc_4_or_src_mbc_mhl_dst_deix
   192                          	EXTERN ____sdcc_4_xor_src_mbc_mhl_dst_deix
   193                          	EXTERN ____sdcc_4_or_src_dehl_dst_bcix
   194                          	EXTERN ____sdcc_4_xor_src_dehl_dst_bcix
   195                          	EXTERN ____sdcc_4_and_src_dehl_dst_bcix
   196                          	EXTERN ____sdcc_4_xor_src_mbc_mhl_dst_debc
   197                          	EXTERN ____sdcc_4_or_src_mbc_mhl_dst_debc
   198                          	EXTERN ____sdcc_4_and_src_mbc_mhl_dst_debc
   199                          	EXTERN ____sdcc_4_cpl_src_mhl_dst_debc
   200                          	EXTERN ____sdcc_4_xor_src_debc_mhl_dst_debc
   201                          	EXTERN ____sdcc_4_or_src_debc_mhl_dst_debc
   202                          	EXTERN ____sdcc_4_and_src_debc_mhl_dst_debc
   203                          	EXTERN ____sdcc_4_and_src_debc_hlix_dst_debc
   204                          	EXTERN ____sdcc_4_or_src_debc_hlix_dst_debc
   205                          	EXTERN ____sdcc_4_xor_src_debc_hlix_dst_debc
   206                          
   207                          ;--------------------------------------------------------
   208                          ; Public variables in this module
   209                          ;--------------------------------------------------------
   210                          	GLOBAL _umpire_simple_call
   211                          	GLOBAL _compose_named_player
   212                          	GLOBAL _voice_synced_balloon
   213                          	GLOBAL _umpire_balloon_countdown
   214                          	GLOBAL _umpire_frame
   215                          	GLOBAL _init_umpire
   216                          	GLOBAL _update_umpire
   217                          	GLOBAL _make_next_umpire_call
   218                          	GLOBAL _umpire_call_named_player
   219                          	GLOBAL _umpire_call_named_player_voice
   220                          	GLOBAL _umpire_call_no_voice
   221                          	GLOBAL _umpire_call
   222                          	GLOBAL _umpire_call_double_fault
   223                          	GLOBAL _umpire_call_fault
   224                          	GLOBAL _umpire_call_let
   225                          	GLOBAL _umpire_call_out
   226                          	GLOBAL _umpire_call_touch
   227                          	GLOBAL _umpire_call_service
   228                          	GLOBAL _umpire_call_first_service
   229                          	GLOBAL _umpire_call_second_service
   230                          	GLOBAL _umpire_call_game_for_player
   231                          	GLOBAL _umpire_call_set_for_player
   232                          	GLOBAL _umpire_call_match_for_player
   233                          	GLOBAL _umpire_call_score
   234                          	GLOBAL _check_game_point
   235                          ;--------------------------------------------------------
   236                          ; Externals used
   237                          ;--------------------------------------------------------
   238                          	GLOBAL _clear_tilemap
   239                          	GLOBAL _select_tilemap
   240                          	GLOBAL _valid_area
   241                          	GLOBAL _service_area
   242                          	GLOBAL _get_serving_player
   243                          	GLOBAL _is_ad_service
   244                          	GLOBAL _start_match
   245                          	GLOBAL _event_player_touch
   246                          	GLOBAL _event_net_touched
   247                          	GLOBAL _event_player_hit
   248                          	GLOBAL _event_ball_bounced
   249                          	GLOBAL _update_entities
   250                          	GLOBAL _closest_type_of_hit
   251                          	GLOBAL _ball_at_reach
   252                          	GLOBAL _set_player_status
   253                          	GLOBAL _get_player
   254                          	GLOBAL _update_players
   255                          	GLOBAL _init_controls
   256                          	GLOBAL _diplay_profile
   257                          	GLOBAL _in_mouse_kempston_wheel_delta
   258                          	GLOBAL _in_mouse_kempston_wheel
   259                          	GLOBAL _in_mouse_kempston_callee
   260                          	GLOBAL _in_mouse_kempston
   261                          	GLOBAL _in_mouse_kempston_setpos_callee
   262                          	GLOBAL _in_mouse_kempston_setpos
   263                          	GLOBAL _in_mouse_kempston_reset
   264                          	GLOBAL _in_mouse_kempston_init
   265                          	GLOBAL _in_mouse_amx_wheel_delta
   266                          	GLOBAL _in_mouse_amx_wheel
   267                          	GLOBAL _in_mouse_amx_callee
   268                          	GLOBAL _in_mouse_amx
   269                          	GLOBAL _in_mouse_amx_setpos_callee
   270                          	GLOBAL _in_mouse_amx_setpos
   271                          	GLOBAL _in_mouse_amx_reset
   272                          	GLOBAL _in_mouse_amx_init_callee
   273                          	GLOBAL _in_mouse_amx_init
   274                          	GLOBAL _in_stick_sinclair2
   275                          	GLOBAL _in_stick_sinclair1
   276                          	GLOBAL _in_stick_kempston
   277                          	GLOBAL _in_stick_fuller
   278                          	GLOBAL _in_stick_cursor
   279                          	GLOBAL _in_stick_keyboard_fastcall
   280                          	GLOBAL _in_stick_keyboard
   281                          	GLOBAL _in_wait_nokey
   282                          	GLOBAL _in_wait_key
   283                          	GLOBAL _in_test_key
   284                          	GLOBAL _in_pause_fastcall
   285                          	GLOBAL _in_pause
   286                          	GLOBAL _in_key_scancode_fastcall
   287                          	GLOBAL _in_key_scancode
   288                          	GLOBAL _in_key_pressed_fastcall
   289                          	GLOBAL _in_key_pressed
   290                          	GLOBAL _in_inkey
   291                          	GLOBAL _xy_in_boundary
   292                          	GLOBAL _point_in_boundary
   293                          	GLOBAL _x_projection
   294                          	GLOBAL _ball_future_x_and_height
   295                          	GLOBAL _set_ball_velocity_net_height
   296                          	GLOBAL _set_lob_ball_velocity
   297                          	GLOBAL _update_ball
   298                          	GLOBAL _clear_queue
   299                          	GLOBAL _get_message_from_queue
   300                          	GLOBAL _add_message_to_queue
   301                          	GLOBAL _hide_balloon
   302                          	GLOBAL _draw_balloon_with_text
   303                          	GLOBAL _channel_b_remaining_length
   304                          	GLOBAL _is_sound_playing_channel_b
   305                          	GLOBAL _is_sound_playing
   306                          	GLOBAL _play_sound_channel_b
   307                          	GLOBAL _play_sound
   308                          	GLOBAL _sound_interrupt_handler
   309                          	GLOBAL _init_sound
   310                          	GLOBAL _umpire_call_match_point
   311                          	GLOBAL _umpire_call_set_point
   312                          	GLOBAL _umpire_call_game_point
   313                          	GLOBAL _umpire_call_ace
   314                          	GLOBAL _ffsll_callee
   315                          	GLOBAL _ffsll
   316                          	GLOBAL _strxfrm_callee
   317                          	GLOBAL _strxfrm
   318                          	GLOBAL _strupr_fastcall
   319                          	GLOBAL _strupr
   320                          	GLOBAL _strtok_r_callee
   321                          	GLOBAL _strtok_r
   322                          	GLOBAL _strtok_callee
   323                          	GLOBAL _strtok
   324                          	GLOBAL _strstrip_fastcall
   325                          	GLOBAL _strstrip
   326                          	GLOBAL _strstr_callee
   327                          	GLOBAL _strstr
   328                          	GLOBAL _strspn_callee
   329                          	GLOBAL _strspn
   330                          	GLOBAL _strsep_callee
   331                          	GLOBAL _strsep
   332                          	GLOBAL _strrstrip_fastcall
   333                          	GLOBAL _strrstrip
   334                          	GLOBAL _strrstr_callee
   335                          	GLOBAL _strrstr
   336                          	GLOBAL _strrspn_callee
   337                          	GLOBAL _strrspn
   338                          	GLOBAL _strrev_fastcall
   339                          	GLOBAL _strrev
   340                          	GLOBAL _strrcspn_callee
   341                          	GLOBAL _strrcspn
   342                          	GLOBAL _strrchr_callee
   343                          	GLOBAL _strrchr
   344                          	GLOBAL _strpbrk_callee
   345                          	GLOBAL _strpbrk
   346                          	GLOBAL _strnlen_callee
   347                          	GLOBAL _strnlen
   348                          	GLOBAL _strnicmp_callee
   349                          	GLOBAL _strnicmp
   350                          	GLOBAL _strndup_callee
   351                          	GLOBAL _strndup
   352                          	GLOBAL _strncpy_callee
   353                          	GLOBAL _strncpy
   354                          	GLOBAL _strncmp_callee
   355                          	GLOBAL _strncmp
   356                          	GLOBAL _strnchr_callee
   357                          	GLOBAL _strnchr
   358                          	GLOBAL _strncat_callee
   359                          	GLOBAL _strncat
   360                          	GLOBAL _strncasecmp_callee
   361                          	GLOBAL _strncasecmp
   362                          	GLOBAL _strlwr_fastcall
   363                          	GLOBAL _strlwr
   364                          	GLOBAL _strlen_fastcall
   365                          	GLOBAL _strlen
   366                          	GLOBAL _strlcpy_callee
   367                          	GLOBAL _strlcpy
   368                          	GLOBAL _strlcat_callee
   369                          	GLOBAL _strlcat
   370                          	GLOBAL _stricmp_callee
   371                          	GLOBAL _stricmp
   372                          	GLOBAL _strerror_fastcall
   373                          	GLOBAL _strerror
   374                          	GLOBAL _strdup_fastcall
   375                          	GLOBAL _strdup
   376                          	GLOBAL _strcspn_callee
   377                          	GLOBAL _strcspn
   378                          	GLOBAL _strcpy_callee
   379                          	GLOBAL _strcpy
   380                          	GLOBAL _strcoll_callee
   381                          	GLOBAL _strcoll
   382                          	GLOBAL _strcmp_callee
   383                          	GLOBAL _strcmp
   384                          	GLOBAL _strchrnul_callee
   385                          	GLOBAL _strchrnul
   386                          	GLOBAL _strchr_callee
   387                          	GLOBAL _strchr
   388                          	GLOBAL _strcat_callee
   389                          	GLOBAL _strcat
   390                          	GLOBAL _strcasecmp_callee
   391                          	GLOBAL _strcasecmp
   392                          	GLOBAL _stpncpy_callee
   393                          	GLOBAL _stpncpy
   394                          	GLOBAL _stpcpy_callee
   395                          	GLOBAL _stpcpy
   396                          	GLOBAL _memswap_callee
   397                          	GLOBAL _memswap
   398                          	GLOBAL _memset_wr_callee
   399                          	GLOBAL _memset_wr
   400                          	GLOBAL _memset_callee
   401                          	GLOBAL _memset
   402                          	GLOBAL _memrchr_callee
   403                          	GLOBAL _memrchr
   404                          	GLOBAL _memmove_callee
   405                          	GLOBAL _memmove
   406                          	GLOBAL _memmem_callee
   407                          	GLOBAL _memmem
   408                          	GLOBAL _memcpy_callee
   409                          	GLOBAL _memcpy
   410                          	GLOBAL _memcmp_callee
   411                          	GLOBAL _memcmp
   412                          	GLOBAL _memchr_callee
   413                          	GLOBAL _memchr
   414                          	GLOBAL _memccpy_callee
   415                          	GLOBAL _memccpy
   416                          	GLOBAL _ffsl_fastcall
   417                          	GLOBAL _ffsl
   418                          	GLOBAL _ffs_fastcall
   419                          	GLOBAL _ffs
   420                          	GLOBAL __strrstrip__fastcall
   421                          	GLOBAL __strrstrip_
   422                          	GLOBAL __memupr__callee
   423                          	GLOBAL __memupr_
   424                          	GLOBAL __memstrcpy__callee
   425                          	GLOBAL __memstrcpy_
   426                          	GLOBAL __memlwr__callee
   427                          	GLOBAL __memlwr_
   428                          	GLOBAL _rawmemchr_callee
   429                          	GLOBAL _rawmemchr
   430                          	GLOBAL _strnset_callee
   431                          	GLOBAL _strnset
   432                          	GLOBAL _strset_callee
   433                          	GLOBAL _strset
   434                          	GLOBAL _rindex_callee
   435                          	GLOBAL _rindex
   436                          	GLOBAL _index_callee
   437                          	GLOBAL _index
   438                          	GLOBAL _bzero_callee
   439                          	GLOBAL _bzero
   440                          	GLOBAL _bcopy_callee
   441                          	GLOBAL _bcopy
   442                          	GLOBAL _bcmp_callee
   443                          	GLOBAL _bcmp
   444                          	GLOBAL _tilemap
   445                          	GLOBAL _balloon_tilemap
   446                          	GLOBAL _menu_palette_end
   447                          	GLOBAL _menu_palette
   448                          	GLOBAL _menu_patterns
   449                          	GLOBAL _game_palette_end
   450                          	GLOBAL _game_palette
   451                          	GLOBAL _game_patterns
   452                          	GLOBAL _tiles
   453                          	GLOBAL _game_state
   454                          	GLOBAL _match_type
   455                          	GLOBAL _score
   456                          	GLOBAL _player_bottom
   457                          	GLOBAL _player_top
   458                          	GLOBAL _game_settings
   459                          	GLOBAL _ppponent_profile
   460                          	GLOBAL _ball
   461                          	GLOBAL _court_boundaries
   462                          ;--------------------------------------------------------
   463                          ; special function registers
   464                          ;--------------------------------------------------------
   465                          ;--------------------------------------------------------
   466                          ; ram data
   467                          ;--------------------------------------------------------
   468                          	SECTION bss_compiler
   469                          ;--------------------------------------------------------
   470                          ; ram data
   471                          ;--------------------------------------------------------
   472                          
   473                          IF 0
   474                          
   475                          ; .area _INITIALIZED removed by z88dk
   476                          
   477                          _game_score_texts:
   478                          	DEFS 10
   479                          _umpire_call_texts:
   480                          	DEFS 20
   481                          _umpire_frame:
   482                          	DEFS 1
   483                          _umpire_balloon_countdown:
   484                          	DEFS 1
   485                          _voice_synced_balloon:
   486                          	DEFS 1
   487                          _balloon_text_buffer:
   488                          	DEFS 40
   489                          
   490                          ENDIF
   491                          
   492                          ;--------------------------------------------------------
   493                          ; absolute external ram data
   494                          ;--------------------------------------------------------
   495                          	SECTION IGNORE
   496                          ;--------------------------------------------------------
   497                          ; global & static initialisations
   498                          ;--------------------------------------------------------
   499                          	SECTION code_crt_init
   500                          ;--------------------------------------------------------
   501                          ; Home
   502                          ;--------------------------------------------------------
   503                          	SECTION IGNORE
   504                          ;--------------------------------------------------------
   505                          ; code
   506                          ;--------------------------------------------------------
   507                          	SECTION BANK_8
   508                          ;umpire.c:95: // The umpire is always looking at the center of the court
   509                          ;	---------------------------------
   510                          ; Function init_umpire
   511                          ; ---------------------------------
   512                          _init_umpire:
   513                          ;umpire.c:98: // The balloon is not shown
   514  0000  210000            	ld	hl,_umpire_frame
   515  0003  3600              	ld	(hl),0x01
   516                          ;umpire.c:101: voice_synced_balloon = false;
   517  0005  cd0000            	call	_hide_balloon
   518                          ;umpire.c:102:
   519  0008  210000            	ld	hl,_umpire_balloon_countdown
   520  000b  3600              	ld	(hl),0x00
   521                          ;umpire.c:103: clear_queue();
   522  000d  210000            	ld	hl,_voice_synced_balloon
   523  0010  3600              	ld	(hl),0x00
   524                          ;umpire.c:105:
   525                          ;umpire.c:106: void update_umpire(void)
   526  0012  c30000            	jp	_clear_queue
   527                          	SECTION BANK_8
   528                          ;umpire.c:108: // Do not follow the ball if the point is over or if a balloon is being displayed
   529                          ;	---------------------------------
   530                          ; Function update_umpire
   531                          ; ---------------------------------
   532                          _update_umpire:
   533                          ;umpire.c:111: int ball_distance_net = ball.y - NET_REFERENCE_Y;
   534  0015  3a0000            	ld	a,(_game_state + 6)
   535  0018  4f                	ld	c,a
   536  0019  b7                	or	a, a
   537  001a  2000              	jr	NZ,l_update_umpire_00108
   538  001c  210000            	ld	hl,_voice_synced_balloon
   539  001f  cb46              	bit	0, (hl)
   540  0021  2000              	jr	NZ,l_update_umpire_00108
   541  0023  3a0000            	ld	a,(_umpire_balloon_countdown)
   542  0026  b7                	or	a, a
   543  0027  2000              	jr	NZ,l_update_umpire_00108
   544                          ;umpire.c:113: if (abs_ball_distance_net < UMPIRE_CENTRAL_AREA_HEIGHT / 2)
   545  0029  ed4b0000          	ld	bc,(_ball + 4)
   546  002d  110000            	ld	de,0x4320
   547  0030  d5                	push	de
   548  0031  110000            	ld	de,0x0000
   549  0034  d5                	push	de
   550  0035  2a0000            	ld	hl,(_ball + 4 + 2)
   551  0038  e5                	push	hl
   552  0039  c5                	push	bc
   553  003a  cd0000            	call	___fssub_callee
   554  003d  d5                	push	de
   555  003e  e5                	push	hl
   556  003f  cd0000            	call	___fs2sint_callee
   557                          ;umpire.c:114: umpire_frame = UMPIRE_FRAME_LOOK_CENTER;
   558  0042  7c                	ld	a,h
   559  0043  4d                	ld	c,l
   560  0044  44                	ld	b,h
   561  0045  07                	rlca
   562  0046  e600              	and	a,0x01
   563  0048  5f                	ld	e,a
   564  0049  b7                	or	a, a
   565  004a  2800              	jr	Z,l_update_umpire_00123
   566  004c  af                	xor	a, a
   567  004d  91                	sub	a, c
   568  004e  4f                	ld	c, a
   569  004f  9f                	sbc	a, a
   570  0050  90                	sub	a, b
   571  0051  47                	ld	b, a
   572                          l_update_umpire_00123:
   573                          ;umpire.c:115: else if (ball_distance_net < 0)
   574  0052  79                	ld	a, c
   575  0053  d600              	sub	a,0x28
   576  0055  78                	ld	a, b
   577  0056  17                	rla
   578  0057  3f                	ccf
   579  0058  1f                	rra
   580  0059  de00              	sbc	a,0x80
   581  005b  3000              	jr	NC,l_update_umpire_00105
   582                          ;umpire.c:116: umpire_frame = UMPIRE_FRAME_LOOK_UP; // Ball is below the net
   583  005d  210000            	ld	hl,_umpire_frame
   584  0060  3600              	ld	(hl),0x01
   585  0062  1800              	jr	l_update_umpire_00108
   586                          l_update_umpire_00105:
   587                          ;umpire.c:117: else
   588  0064  7b                	ld	a, e
   589  0065  b7                	or	a, a
   590  0066  2800              	jr	Z,l_update_umpire_00102
   591                          ;umpire.c:118: umpire_frame = UMPIRE_FRAME_LOOK_DOWN; // Ball is above the net
   592  0068  210000            	ld	hl,_umpire_frame
   593  006b  3600              	ld	(hl),0x00
   594  006d  1800              	jr	l_update_umpire_00108
   595                          l_update_umpire_00102:
   596                          ;umpire.c:120:
   597  006f  210000            	ld	hl,_umpire_frame
   598  0072  3600              	ld	(hl),0x02
   599                          l_update_umpire_00108:
   600                          ;umpire.c:125: // The balloon is still on the screen
   601  0074  210000            	ld	hl,_umpire_balloon_countdown
   602                          ;umpire.c:128: {
   603                          ;umpire.c:129: hide_balloon();
   604  0077  7e                	ld	a,(hl)
   605  0078  b7                	or	a, a
   606  0079  2800              	jr	Z,l_update_umpire_00119
   607  007b  3d                	dec	a
   608  007c  77                	ld	(hl),a
   609  007d  b7                	or	a, a
   610  007e  2000              	jr	NZ,l_update_umpire_00121
   611                          ;umpire.c:131: }
   612  0080  cd0000            	call	_hide_balloon
   613                          ;umpire.c:132: }
   614  0083  c30000            	jp	_make_next_umpire_call
   615  0086  1800              	jr	l_update_umpire_00121
   616                          l_update_umpire_00119:
   617                          ;umpire.c:135: bool mouth_open = channel_b_remaining_length() & 0x0800;
   618  0088  210000            	ld	hl,_voice_synced_balloon
   619  008b  cb46              	bit	0, (hl)
   620  008d  2800              	jr	Z,l_update_umpire_00116
   621                          ;umpire.c:137: if (!is_sound_playing_channel_b())
   622  008f  cd0000            	call	_channel_b_remaining_length
   623  0092  7c                	ld	a, h
   624  0093  0f                	rrca
   625  0094  0f                	rrca
   626  0095  0f                	rrca
   627                          ;umpire.c:138: {
   628  0096  e600              	and	a,0x01
   629  0098  2800              	jr	Z,l_update_umpire_00125
   630  009a  3e00              	ld	a,0x03
   631  009c  1800              	jr	l_update_umpire_00126
   632                          l_update_umpire_00125:
   633  009e  3e00              	ld	a,0x01
   634                          l_update_umpire_00126:
   635  00a0  321e00            	ld	(_umpire_frame),a
   636                          ;umpire.c:139: // The voice has ended... we let the balloon some extra time
   637  00a3  cd0000            	call	_is_sound_playing_channel_b
   638  00a6  cb45              	bit	0, l
   639  00a8  200f              	jr	NZ,l_update_umpire_00121
   640                          ;umpire.c:142: }
   641  00aa  211f00            	ld	hl,_umpire_balloon_countdown
   642  00ad  360a              	ld	(hl),0x0a
   643                          ;umpire.c:143: }
   644  00af  212000            	ld	hl,_voice_synced_balloon
   645  00b2  3600              	ld	(hl),0x00
   646  00b4  1803              	jr	l_update_umpire_00121
   647                          l_update_umpire_00116:
   648                          ;umpire.c:148: }
   649  00b6  c3ba00            	jp	_make_next_umpire_call
   650                          l_update_umpire_00121:
   651                          ;umpire.c:150: // ------------------------------------
   652  00b9  c9                	ret
   653                          ;umpire.c:156: UmpireMessage *message = get_message_from_queue();
   654                          ;	---------------------------------
   655                          ; Function make_next_umpire_call
   656                          ; ---------------------------------
   657                          _make_next_umpire_call:
   658                          ;umpire.c:158: {
   659  00ba  cd0000            	call	_get_message_from_queue
   660                          ;umpire.c:159: // // The message is not empty
   661  00bd  7c                	ld	a, h
   662  00be  b5                	or	a, l
   663  00bf  282b              	jr	Z,l_make_next_umpire_call_00108
   664                          ;umpire.c:162: // Play the sound
   665  00c1  5e                	ld	e, (hl)
   666                          ;umpire.c:170: }
   667  00c2  4d                	ld	c, l
   668  00c3  44                	ld	b, h
   669  00c4  03                	inc	bc
   670                          ;umpire.c:162: // Play the sound
   671  00c5  7b                	ld	a, e
   672  00c6  3c                	inc	a
   673  00c7  2819              	jr	Z,l_make_next_umpire_call_00104
   674                          ;umpire.c:165: if (message->text != NULL)
   675  00c9  e5                	push	hl
   676  00ca  c5                	push	bc
   677  00cb  6b                	ld	l, e
   678  00cc  cd0000            	call	_play_sound_channel_b
   679  00cf  c1                	pop	bc
   680  00d0  e1                	pop	hl
   681                          ;umpire.c:166: {
   682  00d1  3e01              	ld	a,0x01
   683  00d3  322000            	ld	(_voice_synced_balloon), a
   684                          ;umpire.c:167: // Show the balloon with the text
   685  00d6  23                	inc	hl
   686  00d7  7c                	ld	a, h
   687  00d8  b5                	or	a, l
   688  00d9  2811              	jr	Z,l_make_next_umpire_call_00108
   689                          ;umpire.c:170: }
   690  00db  c5                	push	bc
   691  00dc  cd0000            	call	_draw_balloon_with_text
   692  00df  f1                	pop	af
   693  00e0  180a              	jr	l_make_next_umpire_call_00108
   694                          l_make_next_umpire_call_00104:
   695                          ;umpire.c:176: }
   696  00e2  c5                	push	bc
   697  00e3  cd0000            	call	_draw_balloon_with_text
   698  00e6  f1                	pop	af
   699                          ;umpire.c:177: }
   700  00e7  211f00            	ld	hl,_umpire_balloon_countdown
   701  00ea  3632              	ld	(hl),0x32
   702                          l_make_next_umpire_call_00108:
   703                          ;umpire.c:180: void compose_named_player(PlayerId player_id, const char *text)
   704  00ec  c9                	ret
   705                          ;umpire.c:182: Player *player = get_player(player_id);
   706                          ;	---------------------------------
   707                          ; Function compose_named_player
   708                          ; ---------------------------------
   709                          _compose_named_player:
   710  00ed  cd0000            	call	___sdcc_enter_ix
   711  00f0  f5                	push	af
   712  00f1  f5                	push	af
   713                          ;umpire.c:184: uint8_t player_name_length = strlen(player->name);
   714  00f2  dd7e04            	ld	a,(ix+4)
   715  00f5  f5                	push	af
   716  00f6  33                	inc	sp
   717  00f7  cd0000            	call	_get_player
   718  00fa  33                	inc	sp
   719  00fb  eb                	ex	de, hl
   720                          ;umpire.c:185: uint8_t total_length = action_length + player_name_length;
   721  00fc  dd6e05            	ld	l,(ix+5)
   722  00ff  dd6606            	ld	h,(ix+6)
   723  0102  cd0000            	call	_strlen_fastcall
   724  0105  4d                	ld	c, l
   725                          ;umpire.c:186: if (total_length >= BALLOON_TEXT_MAX_LENGTH)
   726  0106  211200            	ld	hl,0x0012
   727  0109  19                	add	hl, de
   728  010a  f1                	pop	af
   729  010b  46                	ld	b,(hl)
   730  010c  e5                	push	hl
   731  010d  23                	inc	hl
   732  010e  66                	ld	h, (hl)
   733  010f  c5                	push	bc
   734  0110  68                	ld	l, b
   735  0111  cd0000            	call	_strlen_fastcall
   736  0114  c1                	pop	bc
   737                          ;umpire.c:187: {
   738  0115  09                	add	hl, bc
   739                          ;umpire.c:188: // The text is too long for the balloon
   740  0116  7d                	ld	a,l
   741  0117  5d                	ld	e,l
   742  0118  d628              	sub	a,0x28
   743  011a  3802              	jr	C,l_compose_named_player_00102
   744                          ;umpire.c:191:
   745  011c  1e27              	ld	e,0x27
   746                          l_compose_named_player_00102:
   747                          ;umpire.c:194: balloon_text_buffer[total_length] = '\0';
   748  011e  dd4605            	ld	b,(ix+5)
   749  0121  dd5606            	ld	d,(ix+6)
   750  0124  69                	ld	l, c
   751  0125  2600              	ld	h,0x00
   752  0127  d5                	push	de
   753  0128  c5                	push	bc
   754  0129  4d                	ld	c, l
   755  012a  68                	ld	l, b
   756  012b  7c                	ld	a,h
   757  012c  b1                	or	a,c
   758  012d  2807              	jr	Z,l_compose_named_player_00110
   759  012f  44                	ld	b,h
   760  0130  62                	ld	h,d
   761  0131  112100            	ld	de,_balloon_text_buffer
   762  0134  edb0              	ldir
   763                          l_compose_named_player_00110:
   764  0136  c1                	pop	bc
   765  0137  d1                	pop	de
   766                          ;umpire.c:195: }
   767  0138  0600              	ld	b,0x00
   768  013a  212100            	ld	hl,_balloon_text_buffer
   769  013d  09                	add	hl, bc
   770  013e  dd75fe            	ld	(ix-2),l
   771  0141  dd74ff            	ld	(ix-1),h
   772  0144  e1                	pop	hl
   773  0145  46                	ld	b,(hl)
   774  0146  e5                	push	hl
   775  0147  23                	inc	hl
   776  0148  66                	ld	h, (hl)
   777  0149  68                	ld	l, b
   778  014a  7b                	ld	a, e
   779  014b  0600              	ld	b,0x00
   780  014d  50                	ld	d,b
   781  014e  91                	sub	a, c
   782  014f  4f                	ld	c, a
   783  0150  78                	ld	a, b
   784  0151  9a                	sbc	a, d
   785  0152  47                	ld	b, a
   786  0153  d5                	push	de
   787  0154  dd5efe            	ld	e,(ix-2)
   788  0157  dd56ff            	ld	d,(ix-1)
   789  015a  78                	ld	a, b
   790  015b  b1                	or	a, c
   791  015c  2802              	jr	Z,l_compose_named_player_00111
   792  015e  edb0              	ldir
   793                          l_compose_named_player_00111:
   794  0160  d1                	pop	de
   795                          ;umpire.c:196:
   796  0161  1600              	ld	d,0x00
   797  0163  212100            	ld	hl,_balloon_text_buffer
   798  0166  19                	add	hl, de
   799  0167  3600              	ld	(hl),0x00
   800                          ;umpire.c:197: void umpire_call_named_player(PlayerId player_id, const char *text)
   801  0169  ddf9              	ld	sp, ix
   802  016b  dde1              	pop	ix
   803  016d  c9                	ret
   804                          ;umpire.c:199: compose_named_player(player_id, text);
   805                          ;	---------------------------------
   806                          ; Function umpire_call_named_player
   807                          ; ---------------------------------
   808                          _umpire_call_named_player:
   809  016e  cd0000            	call	___sdcc_enter_ix
   810                          ;umpire.c:201: }
   811  0171  dd6e05            	ld	l,(ix+5)
   812  0174  dd6606            	ld	h,(ix+6)
   813  0177  e5                	push	hl
   814  0178  dd7e04            	ld	a,(ix+4)
   815  017b  f5                	push	af
   816  017c  33                	inc	sp
   817  017d  cded00            	call	_compose_named_player
   818                          ;umpire.c:202:
   819  0180  33                	inc	sp
   820  0181  212100            	ld	hl,_balloon_text_buffer
   821  0184  e3                	ex	(sp),hl
   822  0185  cdb001            	call	_umpire_call_no_voice
   823  0188  f1                	pop	af
   824                          ;umpire.c:203: void umpire_call_named_player_voice(PlayerId player_id, SoundSampleEnum voice, const char *text)
   825  0189  dde1              	pop	ix
   826  018b  c9                	ret
   827                          ;umpire.c:205: compose_named_player(player_id, text);
   828                          ;	---------------------------------
   829                          ; Function umpire_call_named_player_voice
   830                          ; ---------------------------------
   831                          _umpire_call_named_player_voice:
   832  018c  cd0000            	call	___sdcc_enter_ix
   833                          ;umpire.c:207: }
   834  018f  dd6e06            	ld	l,(ix+6)
   835  0192  dd6607            	ld	h,(ix+7)
   836  0195  e5                	push	hl
   837  0196  dd7e04            	ld	a,(ix+4)
   838  0199  f5                	push	af
   839  019a  33                	inc	sp
   840  019b  cded00            	call	_compose_named_player
   841                          ;umpire.c:208:
   842  019e  33                	inc	sp
   843  019f  212100            	ld	hl,_balloon_text_buffer
   844  01a2  e3                	ex	(sp),hl
   845  01a3  dd7e05            	ld	a,(ix+5)
   846  01a6  f5                	push	af
   847  01a7  33                	inc	sp
   848  01a8  cde401            	call	_umpire_call
   849  01ab  f1                	pop	af
   850  01ac  33                	inc	sp
   851                          ;umpire.c:209: void umpire_call_no_voice(const char *text)
   852  01ad  dde1              	pop	ix
   853  01af  c9                	ret
   854                          ;umpire.c:211: add_message_to_queue(NO_SOUND_SAMPLE, text);
   855                          ;	---------------------------------
   856                          ; Function umpire_call_no_voice
   857                          ; ---------------------------------
   858                          _umpire_call_no_voice:
   859  01b0  cd0000            	call	___sdcc_enter_ix
   860                          ;umpire.c:213:
   861  01b3  dd6e04            	ld	l,(ix+4)
   862  01b6  dd6605            	ld	h,(ix+5)
   863  01b9  e5                	push	hl
   864  01ba  3eff              	ld	a,0xff
   865  01bc  f5                	push	af
   866  01bd  33                	inc	sp
   867  01be  cd0000            	call	_add_message_to_queue
   868  01c1  f1                	pop	af
   869  01c2  33                	inc	sp
   870                          ;umpire.c:214: void umpire_simple_call(SoundSampleEnum voice)
   871  01c3  dde1              	pop	ix
   872  01c5  c9                	ret
   873                          ;umpire.c:216: add_message_to_queue(voice, umpire_call_texts[voice]);
   874                          ;	---------------------------------
   875                          ; Function umpire_simple_call
   876                          ; ---------------------------------
   877                          _umpire_simple_call:
   878  01c6  cd0000            	call	___sdcc_enter_ix
   879                          ;umpire.c:218:
   880  01c9  010a00            	ld	bc,_umpire_call_texts+0
   881  01cc  dd6e04            	ld	l,(ix+4)
   882  01cf  2600              	ld	h,0x00
   883  01d1  29                	add	hl, hl
   884  01d2  09                	add	hl, bc
   885  01d3  4e                	ld	c, (hl)
   886  01d4  23                	inc	hl
   887  01d5  46                	ld	b, (hl)
   888  01d6  c5                	push	bc
   889  01d7  dd7e04            	ld	a,(ix+4)
   890  01da  f5                	push	af
   891  01db  33                	inc	sp
   892  01dc  cd0000            	call	_add_message_to_queue
   893  01df  f1                	pop	af
   894  01e0  33                	inc	sp
   895                          ;umpire.c:219: void umpire_call(SoundSampleEnum voice, const char *text)
   896  01e1  dde1              	pop	ix
   897  01e3  c9                	ret
   898                          ;umpire.c:221: add_message_to_queue(voice, text);
   899                          ;	---------------------------------
   900                          ; Function umpire_call
   901                          ; ---------------------------------
   902                          _umpire_call:
   903  01e4  cd0000            	call	___sdcc_enter_ix
   904                          ;umpire.c:223:
   905  01e7  dd6e05            	ld	l,(ix+5)
   906  01ea  dd6606            	ld	h,(ix+6)
   907  01ed  e5                	push	hl
   908  01ee  dd7e04            	ld	a,(ix+4)
   909  01f1  f5                	push	af
   910  01f2  33                	inc	sp
   911  01f3  cd0000            	call	_add_message_to_queue
   912  01f6  f1                	pop	af
   913  01f7  33                	inc	sp
   914                          ;umpire.c:224: // ---------------------------------------------
   915  01f8  dde1              	pop	ix
   916  01fa  c9                	ret
   917                          ;umpire.c:230: umpire_simple_call(VOICE_DOUBLE_FAULT);
   918                          ;	---------------------------------
   919                          ; Function umpire_call_double_fault
   920                          ; ---------------------------------
   921                          _umpire_call_double_fault:
   922                          ;umpire.c:232:
   923  01fb  3e02              	ld	a,0x02
   924  01fd  f5                	push	af
   925  01fe  33                	inc	sp
   926  01ff  cdc601            	call	_umpire_simple_call
   927  0202  33                	inc	sp
   928                          ;umpire.c:233: void umpire_call_fault(void)
   929  0203  c9                	ret
   930                          ;umpire.c:235: umpire_simple_call(VOICE_FAULT);
   931                          ;	---------------------------------
   932                          ; Function umpire_call_fault
   933                          ; ---------------------------------
   934                          _umpire_call_fault:
   935                          ;umpire.c:237:
   936  0204  3e01              	ld	a,0x01
   937  0206  f5                	push	af
   938  0207  33                	inc	sp
   939  0208  cdc601            	call	_umpire_simple_call
   940  020b  33                	inc	sp
   941                          ;umpire.c:238: void umpire_call_let(void)
   942  020c  c9                	ret
   943                          ;umpire.c:240: umpire_simple_call(VOICE_LET);
   944                          ;	---------------------------------
   945                          ; Function umpire_call_let
   946                          ; ---------------------------------
   947                          _umpire_call_let:
   948                          ;umpire.c:242:
   949  020d  3e05              	ld	a,0x05
   950  020f  f5                	push	af
   951  0210  33                	inc	sp
   952  0211  cdc601            	call	_umpire_simple_call
   953  0214  33                	inc	sp
   954                          ;umpire.c:243: void umpire_call_out(void)
   955  0215  c9                	ret
   956                          ;umpire.c:245: umpire_simple_call(VOICE_OUT);
   957                          ;	---------------------------------
   958                          ; Function umpire_call_out
   959                          ; ---------------------------------
   960                          _umpire_call_out:
   961                          ;umpire.c:247:
   962  0216  af                	xor	a, a
   963  0217  f5                	push	af
   964  0218  33                	inc	sp
   965  0219  cdc601            	call	_umpire_simple_call
   966  021c  33                	inc	sp
   967                          ;umpire.c:248: void umpire_call_touch(void)
   968  021d  c9                	ret
   969                          ;umpire.c:250: umpire_simple_call(VOICE_TOUCH);
   970                          ;	---------------------------------
   971                          ; Function umpire_call_touch
   972                          ; ---------------------------------
   973                          _umpire_call_touch:
   974                          ;umpire.c:252:
   975  021e  3e06              	ld	a,0x06
   976  0220  f5                	push	af
   977  0221  33                	inc	sp
   978  0222  cdc601            	call	_umpire_simple_call
   979  0225  33                	inc	sp
   980                          ;umpire.c:253: void umpire_call_service(void)
   981  0226  c9                	ret
   982                          ;umpire.c:255: // At the moment the service is announced, the player is not yet serving, so, service_owner points to the opposite
   983                          ;	---------------------------------
   984                          ; Function umpire_call_service
   985                          ; ---------------------------------
   986                          _umpire_call_service:
   987                          ;umpire.c:258:
   988  0227  3a0200            	ld	a,(_game_state + 2)
   989  022a  ee01              	xor	a,0x01
   990  022c  210000            	ld	hl,___str_0
   991  022f  e5                	push	hl
   992  0230  f5                	push	af
   993  0231  33                	inc	sp
   994  0232  cd6e01            	call	_umpire_call_named_player
   995  0235  f1                	pop	af
   996  0236  33                	inc	sp
   997                          ;umpire.c:259: void umpire_call_first_service(void)
   998  0237  c9                	ret
   999                          	SECTION rodata_compiler
  1000                          ___str_0:
  1001  0000  5345525649434520  	DEFM "SERVICE TO "
              544f20            
  1002  000b  00                	DEFB 0x00
  1003                          	SECTION BANK_8
  1004                          ;umpire.c:261: umpire_simple_call(VOICE_FIRST_SERVICE);
  1005                          ;	---------------------------------
  1006                          ; Function umpire_call_first_service
  1007                          ; ---------------------------------
  1008                          _umpire_call_first_service:
  1009                          ;umpire.c:263:
  1010  0238  3e03              	ld	a,0x03
  1011  023a  f5                	push	af
  1012  023b  33                	inc	sp
  1013  023c  cdc601            	call	_umpire_simple_call
  1014  023f  33                	inc	sp
  1015                          ;umpire.c:264: void umpire_call_second_service(void)
  1016  0240  c9                	ret
  1017                          ;umpire.c:266: umpire_simple_call(VOICE_SECOND_SERVICE);
  1018                          ;	---------------------------------
  1019                          ; Function umpire_call_second_service
  1020                          ; ---------------------------------
  1021                          _umpire_call_second_service:
  1022                          ;umpire.c:268:
  1023  0241  3e04              	ld	a,0x04
  1024  0243  f5                	push	af
  1025  0244  33                	inc	sp
  1026  0245  cdc601            	call	_umpire_simple_call
  1027  0248  33                	inc	sp
  1028                          ;umpire.c:269: void umpire_call_game_for_player(uint8_t player)
  1029  0249  c9                	ret
  1030                          ;umpire.c:271: umpire_call_named_player_voice(player, game_state.service_owner == player ? GAME_SERVER : GAME_RECEIVER, TEXT_VOICE_GAME);
  1031                          ;	---------------------------------
  1032                          ; Function umpire_call_game_for_player
  1033                          ; ---------------------------------
  1034                          _umpire_call_game_for_player:
  1035  024a  cd0000            	call	___sdcc_enter_ix
  1036                          ;umpire.c:273:
  1037  024d  010c00            	ld	bc,___str_1+0
  1038  0250  3a0200            	ld	a,(_game_state + 2)
  1039  0253  dd5e04            	ld	e,(ix+4)
  1040  0256  93                	sub	a, e
  1041  0257  2004              	jr	NZ,l_umpire_call_game_for_player_00103
  1042  0259  160b              	ld	d,0x0b
  1043  025b  1802              	jr	l_umpire_call_game_for_player_00104
  1044                          l_umpire_call_game_for_player_00103:
  1045  025d  160a              	ld	d,0x0a
  1046                          l_umpire_call_game_for_player_00104:
  1047  025f  af                	xor	a, a
  1048  0260  ddbe04            	cp	a,(ix+4)
  1049  0263  17                	rla
  1050  0264  c5                	push	bc
  1051  0265  5f                	ld	e,a
  1052  0266  d5                	push	de
  1053  0267  cd8c01            	call	_umpire_call_named_player_voice
  1054  026a  f1                	pop	af
  1055  026b  f1                	pop	af
  1056                          ;umpire.c:274: void umpire_call_set_for_player(uint8_t player)
  1057  026c  dde1              	pop	ix
  1058  026e  c9                	ret
  1059                          	SECTION rodata_compiler
  1060                          ___str_1:
  1061  000c  47414d4520        	DEFM "GAME "
  1062  0011  00                	DEFB 0x00
  1063                          	SECTION BANK_8
  1064                          ;umpire.c:276: umpire_call_named_player_voice(player, game_state.service_owner == player ? SET_SERVER : SET_RECEIVER, TEXT_VOICE_SET);
  1065                          ;	---------------------------------
  1066                          ; Function umpire_call_set_for_player
  1067                          ; ---------------------------------
  1068                          _umpire_call_set_for_player:
  1069  026f  cd0000            	call	___sdcc_enter_ix
  1070                          ;umpire.c:278:
  1071  0272  011200            	ld	bc,___str_2+0
  1072  0275  3a0200            	ld	a,(_game_state + 2)
  1073  0278  dd5e04            	ld	e,(ix+4)
  1074  027b  93                	sub	a, e
  1075  027c  2004              	jr	NZ,l_umpire_call_set_for_player_00103
  1076  027e  160d              	ld	d,0x0d
  1077  0280  1802              	jr	l_umpire_call_set_for_player_00104
  1078                          l_umpire_call_set_for_player_00103:
  1079  0282  160c              	ld	d,0x0c
  1080                          l_umpire_call_set_for_player_00104:
  1081  0284  af                	xor	a, a
  1082  0285  ddbe04            	cp	a,(ix+4)
  1083  0288  17                	rla
  1084  0289  c5                	push	bc
  1085  028a  5f                	ld	e,a
  1086  028b  d5                	push	de
  1087  028c  cd8c01            	call	_umpire_call_named_player_voice
  1088  028f  f1                	pop	af
  1089  0290  f1                	pop	af
  1090                          ;umpire.c:279: void umpire_call_match_for_player(uint8_t player)
  1091  0291  dde1              	pop	ix
  1092  0293  c9                	ret
  1093                          	SECTION rodata_compiler
  1094                          ___str_2:
  1095  0012  47414d452c205345  	DEFM "GAME, SET "
              5420              
  1096  001c  00                	DEFB 0x00
  1097                          	SECTION BANK_8
  1098                          ;umpire.c:281: umpire_call_named_player_voice(player, game_state.service_owner == player ? MATCH_SERVER : MATCH_RECEIVER, TEXT_VOICE_MATCH);
  1099                          ;	---------------------------------
  1100                          ; Function umpire_call_match_for_player
  1101                          ; ---------------------------------
  1102                          _umpire_call_match_for_player:
  1103  0294  cd0000            	call	___sdcc_enter_ix
  1104                          ;umpire.c:283:
  1105  0297  011d00            	ld	bc,___str_3+0
  1106  029a  3a0200            	ld	a,(_game_state + 2)
  1107  029d  dd5e04            	ld	e,(ix+4)
  1108  02a0  93                	sub	a, e
  1109  02a1  2004              	jr	NZ,l_umpire_call_match_for_player_00103
  1110  02a3  160f              	ld	d,0x0f
  1111  02a5  1802              	jr	l_umpire_call_match_for_player_00104
  1112                          l_umpire_call_match_for_player_00103:
  1113  02a7  160e              	ld	d,0x0e
  1114                          l_umpire_call_match_for_player_00104:
  1115  02a9  af                	xor	a, a
  1116  02aa  ddbe04            	cp	a,(ix+4)
  1117  02ad  17                	rla
  1118  02ae  c5                	push	bc
  1119  02af  5f                	ld	e,a
  1120  02b0  d5                	push	de
  1121  02b1  cd8c01            	call	_umpire_call_named_player_voice
  1122  02b4  f1                	pop	af
  1123  02b5  f1                	pop	af
  1124                          ;umpire.c:284: void umpire_call_score(void)
  1125  02b6  dde1              	pop	ix
  1126  02b8  c9                	ret
  1127                          	SECTION rodata_compiler
  1128                          ___str_3:
  1129  001d  47414d452c205345  	DEFM "GAME, SET, MATCH "
              542c204d41544348  
              20                
  1130  002e  00                	DEFB 0x00
  1131                          	SECTION BANK_8
  1132                          ;umpire.c:286: uint8_t score_index = 0;
  1133                          ;	---------------------------------
  1134                          ; Function umpire_call_score
  1135                          ; ---------------------------------
  1136                          _umpire_call_score:
  1137  02b9  cd0000            	call	___sdcc_enter_ix
  1138  02bc  f5                	push	af
  1139                          ;umpire.c:290:
  1140  02bd  010400            	ld	bc,_score+4
  1141  02c0  210200            	ld	hl,+(_game_state + 2)
  1142  02c3  5e                	ld	e, (hl)
  1143  02c4  6b                	ld	l, e
  1144  02c5  2600              	ld	h,0x00
  1145  02c7  09                	add	hl, bc
  1146  02c8  7e                	ld	a, (hl)
  1147  02c9  dd77fe            	ld	(ix-2),a
  1148                          ;umpire.c:291: for (uint8_t i = 0; game_score_texts[server_score][i] != 0; i++)
  1149  02cc  7b                	ld	a, e
  1150  02cd  2600              	ld	h,0x00
  1151  02cf  ee01              	xor	a,0x01
  1152  02d1  6f                	ld	l, a
  1153  02d2  09                	add	hl, bc
  1154  02d3  7e                	ld	a, (hl)
  1155  02d4  dd77ff            	ld	(ix-1),a
  1156                          ;umpire.c:293: balloon_text_buffer[score_index++] = game_score_texts[server_score][i];
  1157  02d7  010000            	ld	bc,0x0000
  1158                          l_umpire_call_score_00106:
  1159  02da  dd6efe            	ld	l,(ix-2)
  1160  02dd  2600              	ld	h,0x00
  1161  02df  29                	add	hl, hl
  1162  02e0  110000            	ld	de,_game_score_texts
  1163  02e3  19                	add	hl, de
  1164  02e4  5e                	ld	e, (hl)
  1165  02e5  23                	inc	hl
  1166  02e6  56                	ld	d, (hl)
  1167  02e7  68                	ld	l, b
  1168  02e8  2600              	ld	h,0x00
  1169  02ea  19                	add	hl, de
  1170  02eb  5e                	ld	e, (hl)
  1171                          ;umpire.c:295: balloon_text_buffer[score_index++] = ' ';
  1172  02ec  51                	ld	d, c
  1173  02ed  14                	inc	d
  1174  02ee  3e21              	ld	a, +((_balloon_text_buffer) & 0xFF)
  1175  02f0  81                	add	a, c
  1176  02f1  6f                	ld	l, a
  1177  02f2  3e00              	ld	a, +((_balloon_text_buffer) / 256)
  1178  02f4  ce00              	adc	a,0x00
  1179  02f6  67                	ld	h, a
  1180                          ;umpire.c:293: balloon_text_buffer[score_index++] = game_score_texts[server_score][i];
  1181  02f7  7b                	ld	a, e
  1182  02f8  b7                	or	a, a
  1183  02f9  2805              	jr	Z,l_umpire_call_score_00101
  1184                          ;umpire.c:295: balloon_text_buffer[score_index++] = ' ';
  1185  02fb  4a                	ld	c, d
  1186  02fc  73                	ld	(hl), e
  1187                          ;umpire.c:293: balloon_text_buffer[score_index++] = game_score_texts[server_score][i];
  1188  02fd  04                	inc	b
  1189  02fe  18da              	jr	l_umpire_call_score_00106
  1190                          l_umpire_call_score_00101:
  1191                          ;umpire.c:297: balloon_text_buffer[score_index++] = ' ';
  1192  0300  4a                	ld	c, d
  1193  0301  3620              	ld	(hl),0x20
  1194                          ;umpire.c:298:
  1195  0303  59                	ld	e, c
  1196  0304  0c                	inc	c
  1197  0305  1600              	ld	d,0x00
  1198  0307  212100            	ld	hl,_balloon_text_buffer
  1199  030a  19                	add	hl, de
  1200  030b  362d              	ld	(hl),0x2d
  1201                          ;umpire.c:299: for (uint8_t i = 0; game_score_texts[receiver_score][i] != 0; i++)
  1202  030d  59                	ld	e, c
  1203  030e  0c                	inc	c
  1204  030f  1600              	ld	d,0x00
  1205  0311  212100            	ld	hl,_balloon_text_buffer
  1206  0314  19                	add	hl, de
  1207  0315  3620              	ld	(hl),0x20
  1208                          ;umpire.c:301: balloon_text_buffer[score_index++] = game_score_texts[receiver_score][i];
  1209  0317  1e00              	ld	e,0x00
  1210                          l_umpire_call_score_00109:
  1211  0319  dd6eff            	ld	l,(ix-1)
  1212  031c  2600              	ld	h,0x00
  1213  031e  29                	add	hl, hl
  1214  031f  3e00              	ld	a,+((_game_score_texts) & 0xFF)
  1215  0321  85                	add	a,l
  1216  0322  6f                	ld	l,a
  1217  0323  3e00              	ld	a,+((_game_score_texts) / 256)
  1218  0325  8c                	adc	a,h
  1219  0326  67                	ld	h,a
  1220  0327  7e                	ld	a, (hl)
  1221  0328  23                	inc	hl
  1222  0329  66                	ld	h, (hl)
  1223  032a  6f                	ld	l, a
  1224  032b  1600              	ld	d,0x00
  1225  032d  19                	add	hl, de
  1226  032e  56                	ld	d, (hl)
  1227                          ;umpire.c:303:
  1228  032f  0600              	ld	b,0x00
  1229  0331  212100            	ld	hl,_balloon_text_buffer
  1230  0334  09                	add	hl, bc
  1231                          ;umpire.c:301: balloon_text_buffer[score_index++] = game_score_texts[receiver_score][i];
  1232  0335  7a                	ld	a, d
  1233  0336  b7                	or	a, a
  1234  0337  2805              	jr	Z,l_umpire_call_score_00102
  1235                          ;umpire.c:303:
  1236  0339  0c                	inc	c
  1237  033a  72                	ld	(hl), d
  1238                          ;umpire.c:301: balloon_text_buffer[score_index++] = game_score_texts[receiver_score][i];
  1239  033b  1c                	inc	e
  1240  033c  18db              	jr	l_umpire_call_score_00109
  1241                          l_umpire_call_score_00102:
  1242                          ;umpire.c:306: SoundSampleEnum sound = SCORE_0_15 + server_score * 4 + receiver_score - 1;
  1243  033e  3600              	ld	(hl),0x00
  1244                          ;umpire.c:308: if (server_score == GAME_ADVANTAGE)
  1245  0340  dd7eff            	ld	a,(ix-1)
  1246  0343  c613              	add	a,0x13
  1247  0345  4f                	ld	c, a
  1248  0346  dd7efe            	ld	a,(ix-2)
  1249  0349  87                	add	a, a
  1250  034a  87                	add	a, a
  1251  034b  81                	add	a, c
  1252  034c  47                	ld	b, a
  1253                          ;umpire.c:310:
  1254  034d  dd7efe            	ld	a,(ix-2)
  1255  0350  d604              	sub	a,0x04
  1256  0352  2002              	jr	NZ,l_umpire_call_score_00104
  1257                          ;umpire.c:311: umpire_call(sound, balloon_text_buffer);
  1258  0354  0624              	ld	b,0x24
  1259                          l_umpire_call_score_00104:
  1260                          ;umpire.c:313: check_game_point(1);
  1261  0356  212100            	ld	hl,_balloon_text_buffer
  1262  0359  e5                	push	hl
  1263  035a  c5                	push	bc
  1264  035b  33                	inc	sp
  1265  035c  cde401            	call	_umpire_call
  1266  035f  f1                	pop	af
  1267  0360  33                	inc	sp
  1268                          ;umpire.c:314: }
  1269  0361  af                	xor	a, a
  1270  0362  f5                	push	af
  1271  0363  33                	inc	sp
  1272  0364  cd7403            	call	_check_game_point
  1273  0367  33                	inc	sp
  1274                          ;umpire.c:315:
  1275  0368  3e01              	ld	a,0x01
  1276  036a  f5                	push	af
  1277  036b  33                	inc	sp
  1278  036c  cd7403            	call	_check_game_point
  1279  036f  33                	inc	sp
  1280                          ;umpire.c:316: void check_game_point(uint8_t player)
  1281  0370  f1                	pop	af
  1282  0371  dde1              	pop	ix
  1283  0373  c9                	ret
  1284                          ;umpire.c:318: // TODO: tie break
  1285                          ;	---------------------------------
  1286                          ; Function check_game_point
  1287                          ; ---------------------------------
  1288                          _check_game_point:
  1289  0374  cd0000            	call	___sdcc_enter_ix
  1290                          ;umpire.c:321: {
  1291  0377  010400            	ld	bc,_score + 4
  1292  037a  dd5e04            	ld	e,(ix+4)
  1293  037d  6b                	ld	l, e
  1294  037e  2600              	ld	h,0x00
  1295  0380  09                	add	hl, bc
  1296  0381  6e                	ld	l, (hl)
  1297  0382  7b                	ld	a, e
  1298  0383  ee01              	xor	a,0x01
  1299  0385  57                	ld	d, a
  1300  0386  7d                	ld	a, l
  1301  0387  d603              	sub	a,0x03
  1302  0389  200b              	jr	NZ,l_check_game_point_00111
  1303  038b  79                	ld	a, c
  1304  038c  82                	add	a, d
  1305  038d  4f                	ld	c, a
  1306  038e  3001              	jr	NC,l_check_game_point_00136
  1307  0390  04                	inc	b
  1308                          l_check_game_point_00136:
  1309  0391  0a                	ld	a, (bc)
  1310  0392  d603              	sub	a,0x03
  1311  0394  3805              	jr	C,l_check_game_point_00108
  1312                          l_check_game_point_00111:
  1313                          ;umpire.c:322: // Game point... maybe set point?
  1314  0396  7d                	ld	a, l
  1315  0397  d604              	sub	a,0x04
  1316  0399  2070              	jr	NZ,l_check_game_point_00112
  1317                          l_check_game_point_00108:
  1318                          ;umpire.c:325: // Set point
  1319  039b  3e02              	ld	a,+((_score+2) & 0xFF)
  1320  039d  83                	add	a, e
  1321  039e  4f                	ld	c, a
  1322  039f  3e00              	ld	a,+((_score+2) / 256)
  1323  03a1  ce00              	adc	a,0x00
  1324  03a3  47                	ld	b, a
  1325  03a4  3a0000            	ld	a,(_match_type)
  1326  03a7  2600              	ld	h,0x00
  1327  03a9  6f                	ld	l, a
  1328  03aa  2b                	dec	hl
  1329  03ab  0a                	ld	a, (bc)
  1330  03ac  4f                	ld	c,a
  1331  03ad  0600              	ld	b,0x00
  1332  03af  95                	sub	a, l
  1333  03b0  78                	ld	a, b
  1334  03b1  9c                	sbc	a, h
  1335  03b2  e2b703            	jp	PO, l_check_game_point_00139
  1336  03b5  ee80              	xor	a,0x80
  1337                          l_check_game_point_00139:
  1338  03b7  fa0304            	jp	M, l_check_game_point_00105
  1339  03ba  3e02              	ld	a,+((_score+2) & 0xFF)
  1340  03bc  82                	add	a, d
  1341  03bd  6f                	ld	l, a
  1342  03be  3e00              	ld	a,+((_score+2) / 256)
  1343  03c0  ce00              	adc	a,0x00
  1344  03c2  67                	ld	h, a
  1345  03c3  6e                	ld	l, (hl)
  1346  03c4  2600              	ld	h,0x00
  1347  03c6  79                	ld	a, c
  1348  03c7  95                	sub	a, l
  1349  03c8  4f                	ld	c, a
  1350  03c9  78                	ld	a, b
  1351  03ca  9c                	sbc	a, h
  1352  03cb  47                	ld	b, a
  1353  03cc  79                	ld	a, c
  1354  03cd  d602              	sub	a,0x02
  1355  03cf  78                	ld	a, b
  1356  03d0  17                	rla
  1357  03d1  3f                	ccf
  1358  03d2  1f                	rra
  1359  03d3  de80              	sbc	a,0x80
  1360  03d5  382c              	jr	C,l_check_game_point_00105
  1361                          ;umpire.c:328: // Match point
  1362  03d7  3e00              	ld	a, +((_score) & 0xFF)
  1363  03d9  83                	add	a, e
  1364  03da  5f                	ld	e, a
  1365  03db  3e00              	ld	a, +((_score) / 256)
  1366  03dd  ce00              	adc	a,0x00
  1367  03df  57                	ld	d, a
  1368  03e0  3a0100            	ld	a,(_match_type + 1)
  1369  03e3  0600              	ld	b,0x00
  1370  03e5  4f                	ld	c, a
  1371  03e6  0b                	dec	bc
  1372  03e7  1a                	ld	a, (de)
  1373  03e8  6f                	ld	l, a
  1374  03e9  af                	xor	a,a
  1375  03ea  67                	ld	h,a
  1376  03eb  ed42              	sbc	hl,bc
  1377  03ed  200a              	jr	NZ,l_check_game_point_00102
  1378                          ;umpire.c:331: else
  1379  03ef  3e09              	ld	a,0x09
  1380  03f1  f5                	push	af
  1381  03f2  33                	inc	sp
  1382  03f3  cdc601            	call	_umpire_simple_call
  1383  03f6  33                	inc	sp
  1384  03f7  1812              	jr	l_check_game_point_00112
  1385                          l_check_game_point_00102:
  1386                          ;umpire.c:335: }
  1387  03f9  3e08              	ld	a,0x08
  1388  03fb  f5                	push	af
  1389  03fc  33                	inc	sp
  1390  03fd  cdc601            	call	_umpire_simple_call
  1391  0400  33                	inc	sp
  1392  0401  1808              	jr	l_check_game_point_00112
  1393                          l_check_game_point_00105:
  1394                          ;umpire.c:340: }
  1395  0403  3e07              	ld	a,0x07
  1396  0405  f5                	push	af
  1397  0406  33                	inc	sp
  1398  0407  cdc601            	call	_umpire_simple_call
  1399  040a  33                	inc	sp
  1400                          l_check_game_point_00112:
  1401                          ;umpire.c:343: ERROR: no line number 343 in file umpire.c
  1402  040b  dde1              	pop	ix
  1403  040d  c9                	ret
  1404                          	SECTION rodata_compiler
  1405                          ___str_4:
  1406  002f  30                	DEFM "0"
  1407  0030  00                	DEFB 0x00
  1408                          	SECTION rodata_compiler
  1409                          ___str_5:
  1410  0031  3135              	DEFM "15"
  1411  0033  00                	DEFB 0x00
  1412                          	SECTION rodata_compiler
  1413                          ___str_6:
  1414  0034  3330              	DEFM "30"
  1415  0036  00                	DEFB 0x00
  1416                          	SECTION rodata_compiler
  1417                          ___str_7:
  1418  0037  3430              	DEFM "40"
  1419  0039  00                	DEFB 0x00
  1420                          	SECTION rodata_compiler
  1421                          ___str_8:
  1422  003a  4144              	DEFM "AD"
  1423  003c  00                	DEFB 0x00
  1424                          	SECTION rodata_compiler
  1425                          ___str_9:
  1426  003d  4f555421          	DEFM "OUT!"
  1427  0041  00                	DEFB 0x00
  1428                          	SECTION rodata_compiler
  1429                          ___str_10:
  1430  0042  4641554c5421      	DEFM "FAULT!"
  1431  0048  00                	DEFB 0x00
  1432                          	SECTION rodata_compiler
  1433                          ___str_11:
  1434  0049  444f06424c452046  	DEFM "DOUBLE FAULT!"
              41554c2821        
  1435  0056  00                	DEFB 0x00
  1436                          	SECTION rodata_compiler
  1437                          ___str_12:
  1438  0057  464952805407531e  	DEFM "FIRST SERVICE"
              0056014310        
  1439  0064  00                	DEFB 0x00
  1440                          	SECTION rodata_compiler
  1441                          ___str_13:
  1442  0065  5345074f1e002000  	DEFM "SECOND SERVICE"
              4505561e0045      
  1443  0073  00                	DEFB 0x00
  1444                          	SECTION rodata_compiler
  1445                          ___str_14:
  1446  0074  4c1f0021          	DEFM "LET!"
  1447  0078  00                	DEFB 0x00
  1448                          	SECTION rodata_compiler
  1449                          ___str_15:
  1450  0079  540d55434821      	DEFM "TOUCH!"
  1451  007f  00                	DEFB 0x00
  1452                          	SECTION rodata_compiler
  1453                          ___str_16:
  1454  0080  47000045ba004f31  	DEFM "GAME POINT"
              4e20              
  1455  008a  00                	DEFB 0x00
  1456                          	SECTION rodata_compiler
  1457                          ___str_17:
  1458  008b  534554275000004e  	DEFM "SET POINT"
              54                
  1459  0094  00                	DEFB 0x00
  1460                          	SECTION rodata_compiler
  1461                          ___str_18:
  1462  0095  4d4101430420034f  	DEFM "MATCH POINT"
              024e01            
  1463  00a0  00                	DEFB 0x00
  1464                          	SECTION data_compiler
  1465                          _game_score_texts:
  1466  0000  2f00              	DEFW ___str_4
  1467  0002  3100              	DEFW ___str_5
  1468  0004  3400              	DEFW ___str_6
  1469  0006  3700              	DEFW ___str_7
  1470  0008  3a00              	DEFW ___str_8
  1471                          _umpire_call_texts:
  1472  000a  3d00              	DEFW ___str_9
  1473  000c  4200              	DEFW ___str_10
  1474  000e  4900              	DEFW ___str_11
  1475  0010  5700              	DEFW ___str_12
  1476  0012  6500              	DEFW ___str_13
  1477  0014  7400              	DEFW ___str_14
  1478  0016  7900              	DEFW ___str_15
  1479  0018  8000              	DEFW ___str_16
  1480  001a  8b00              	DEFW ___str_17
  1481  001c  9500              	DEFW ___str_18
  1482                          _umpire_frame:
  1483  001e  01                	DEFB +0x01
  1484                          _umpire_balloon_countdown:
  1485  001f  00                	DEFB +0x00
  1486                          _voice_synced_balloon:
  1487  0020  00                	DEFB +0x00
  1488                          _balloon_text_buffer:
  1489  0021  00                	DEFB +0x00
  1490  0022  00                	DEFB 0x00
  1491  0023  00                	DEFB 0x00
  1492  0024  00                	DEFB 0x00
  1493  0025  00                	DEFB 0x00
  1494  0026  00                	DEFB 0x00
  1495  0027  00                	DEFB 0x00
  1496  0028  00                	DEFB 0x00
  1497  0029  00                	DEFB 0x00
  1498  002a  00                	DEFB 0x00
  1499  002b  00                	DEFB 0x00
  1500  002c  00                	DEFB 0x00
  1501  002d  00                	DEFB 0x00
  1502  002e  00                	DEFB 0x00
  1503  002f  00                	DEFB 0x00
  1504  0030  00                	DEFB 0x00
  1505  0031  00                	DEFB 0x00
  1506  0032  00                	DEFB 0x00
  1507  0033  00                	DEFB 0x00
  1508  0034  00                	DEFB 0x00
  1509  0035  00                	DEFB 0x00
  1510  0036  00                	DEFB 0x00
  1511  0037  00                	DEFB 0x00
  1512  0038  00                	DEFB 0x00
  1513  0039  00                	DEFB 0x00
  1514  003a  00                	DEFB 0x00
  1515  003b  00                	DEFB 0x00
  1516  003c  00                	DEFB 0x00
  1517  003d  00                	DEFB 0x00
  1518  003e  00                	DEFB 0x00
  1519  003f  00                	DEFB 0x00
  1520  0040  00                	DEFB 0x00
  1521  0041  00                	DEFB 0x00
  1522  0042  00                	DEFB 0x00
  1523  0043  00                	DEFB 0x00
  1524  0044  00                	DEFB 0x00
  1525  0045  00                	DEFB 0x00
  1526  0046  00                	DEFB 0x00
  1527  0047  00                	DEFB 0x00
  1528  0048  00                	DEFB 0x00
  1529                          	SECTION IGNORE
  1530                          
