/tmp/tmpK7nJheIG.asm:
     1                          MODULE xrandom_c
     2                          LINE 0, "xrandom.c"
xrandom.c:
                                
     1                          ;--------------------------------------------------------
     2                          ; File Created by SDCC : free open source ISO C Compiler
     3                          ; Version 4.3.0 #14210 (Mac OS X ppc)
     4                          ;--------------------------------------------------------
     5                          	.zxn
     6                          ; Processed by Z88DK
     7                          ;--------------------------------------------------------
     8                          
     9                          	EXTERN __divschar
    10                          	EXTERN __divschar_callee
    11                          	EXTERN __divsint
    12                          	EXTERN __divsint_callee
    13                          	EXTERN __divslong
    14                          	EXTERN __divslong_callee
    15                          	EXTERN __divslonglong
    16                          	EXTERN __divslonglong_callee
    17                          	EXTERN __divsuchar
    18                          	EXTERN __divsuchar_callee
    19                          	EXTERN __divuchar
    20                          	EXTERN __divuchar_callee
    21                          	EXTERN __divuint
    22                          	EXTERN __divuint_callee
    23                          	EXTERN __divulong
    24                          	EXTERN __divulong_callee
    25                          	EXTERN __divulonglong
    26                          	EXTERN __divulonglong_callee
    27                          	EXTERN __divuschar
    28                          	EXTERN __divuschar_callee
    29                          	EXTERN __modschar
    30                          	EXTERN __modschar_callee
    31                          	EXTERN __modsint
    32                          	EXTERN __modsint_callee
    33                          	EXTERN __modslong
    34                          	EXTERN __modslong_callee
    35                          	EXTERN __modslonglong
    36                          	EXTERN __modslonglong_callee
    37                          	EXTERN __modsuchar
    38                          	EXTERN __modsuchar_callee
    39                          	EXTERN __moduchar
    40                          	EXTERN __moduchar_callee
    41                          	EXTERN __moduint
    42                          	EXTERN __moduint_callee
    43                          	EXTERN __modulong
    44                          	EXTERN __modulong_callee
    45                          	EXTERN __modulonglong
    46                          	EXTERN __modulonglong_callee
    47                          	EXTERN __moduschar
    48                          	EXTERN __moduschar_callee
    49                          	EXTERN __mulint
    50                          	EXTERN __mulint_callee
    51                          	EXTERN __mullong
    52                          	EXTERN __mullong_callee
    53                          	EXTERN __mullonglong
    54                          	EXTERN __mullonglong_callee
    55                          	EXTERN __mulschar
    56                          	EXTERN __mulschar_callee
    57                          	EXTERN __mulsuchar
    58                          	EXTERN __mulsuchar_callee
    59                          	EXTERN __muluchar
    60                          	EXTERN __muluchar_callee
    61                          	EXTERN __muluschar
    62                          	EXTERN __muluschar_callee
    63                          	EXTERN __rlslonglong
    64                          	EXTERN __rlslonglong_callee
    65                          	EXTERN __rlulonglong
    66                          	EXTERN __rlulonglong_callee
    67                          	EXTERN __rrslonglong
    68                          	EXTERN __rrslonglong_callee
    69                          	EXTERN __rrulonglong
    70                          	EXTERN __rrulonglong_callee
    71                          	EXTERN ___mulsint2slong
    72                          	EXTERN ___mulsint2slong_callee
    73                          	EXTERN ___muluint2ulong
    74                          	EXTERN ___muluint2ulong_callee
    75                          	EXTERN ___sdcc_call_hl
    76                          	EXTERN ___sdcc_call_iy
    77                          	EXTERN ___sdcc_enter_ix
    78                          	EXTERN banked_call
    79                          	EXTERN _banked_ret
    80                          	EXTERN ___fs2schar
    81                          	EXTERN ___fs2schar_callee
    82                          	EXTERN ___fs2sint
    83                          	EXTERN ___fs2sint_callee
    84                          	EXTERN ___fs2slong
    85                          	EXTERN ___fs2slong_callee
    86                          	EXTERN ___fs2slonglong
    87                          	EXTERN ___fs2slonglong_callee
    88                          	EXTERN ___fs2uchar
    89                          	EXTERN ___fs2uchar_callee
    90                          	EXTERN ___fs2uint
    91                          	EXTERN ___fs2uint_callee
    92                          	EXTERN ___fs2ulong
    93                          	EXTERN ___fs2ulong_callee
    94                          	EXTERN ___fs2ulonglong
    95                          	EXTERN ___fs2ulonglong_callee
    96                          	EXTERN ___fsadd
    97                          	EXTERN ___fsadd_callee
    98                          	EXTERN ___fsdiv
    99                          	EXTERN ___fsdiv_callee
   100                          	EXTERN ___fseq
   101                          	EXTERN ___fseq_callee
   102                          	EXTERN ___fsgt
   103                          	EXTERN ___fsgt_callee
   104                          	EXTERN ___fslt
   105                          	EXTERN ___fslt_callee
   106                          	EXTERN ___fsmul
   107                          	EXTERN ___fsmul_callee
   108                          	EXTERN ___fsneq
   109                          	EXTERN ___fsneq_callee
   110                          	EXTERN ___fssub
   111                          	EXTERN ___fssub_callee
   112                          	EXTERN ___schar2fs
   113                          	EXTERN ___schar2fs_callee
   114                          	EXTERN ___sint2fs
   115                          	EXTERN ___sint2fs_callee
   116                          	EXTERN ___slong2fs
   117                          	EXTERN ___slong2fs_callee
   118                          	EXTERN ___slonglong2fs
   119                          	EXTERN ___slonglong2fs_callee
   120                          	EXTERN ___uchar2fs
   121                          	EXTERN ___uchar2fs_callee
   122                          	EXTERN ___uint2fs
   123                          	EXTERN ___uint2fs_callee
   124                          	EXTERN ___ulong2fs
   125                          	EXTERN ___ulong2fs_callee
   126                          	EXTERN ___ulonglong2fs
   127                          	EXTERN ___ulonglong2fs_callee
   128                          	EXTERN ____sdcc_2_copy_src_mhl_dst_deix
   129                          	EXTERN ____sdcc_2_copy_src_mhl_dst_bcix
   130                          	EXTERN ____sdcc_4_copy_src_mhl_dst_deix
   131                          	EXTERN ____sdcc_4_copy_src_mhl_dst_bcix
   132                          	EXTERN ____sdcc_4_copy_src_mhl_dst_mbc
   133                          	EXTERN ____sdcc_4_ldi_nosave_bc
   134                          	EXTERN ____sdcc_4_ldi_save_bc
   135                          	EXTERN ____sdcc_4_push_hlix
   136                          	EXTERN ____sdcc_4_push_mhl
   137                          	EXTERN ____sdcc_lib_setmem_hl
   138                          	EXTERN ____sdcc_ll_add_de_bc_hl
   139                          	EXTERN ____sdcc_ll_add_de_bc_hlix
   140                          	EXTERN ____sdcc_ll_add_de_hlix_bc
   141                          	EXTERN ____sdcc_ll_add_de_hlix_bcix
   142                          	EXTERN ____sdcc_ll_add_deix_bc_hl
   143                          	EXTERN ____sdcc_ll_add_deix_hlix
   144                          	EXTERN ____sdcc_ll_add_hlix_bc_deix
   145                          	EXTERN ____sdcc_ll_add_hlix_deix_bc
   146                          	EXTERN ____sdcc_ll_add_hlix_deix_bcix
   147                          	EXTERN ____sdcc_ll_asr_hlix_a
   148                          	EXTERN ____sdcc_ll_asr_mbc_a
   149                          	EXTERN ____sdcc_ll_copy_src_de_dst_hlix
   150                          	EXTERN ____sdcc_ll_copy_src_de_dst_hlsp
   151                          	EXTERN ____sdcc_ll_copy_src_deix_dst_hl
   152                          	EXTERN ____sdcc_ll_copy_src_deix_dst_hlix
   153                          	EXTERN ____sdcc_ll_copy_src_deixm_dst_hlsp
   154                          	EXTERN ____sdcc_ll_copy_src_desp_dst_hlsp
   155                          	EXTERN ____sdcc_ll_copy_src_hl_dst_de
   156                          	EXTERN ____sdcc_ll_copy_src_hlsp_dst_de
   157                          	EXTERN ____sdcc_ll_copy_src_hlsp_dst_deixm
   158                          	EXTERN ____sdcc_ll_lsl_hlix_a
   159                          	EXTERN ____sdcc_ll_lsl_mbc_a
   160                          	EXTERN ____sdcc_ll_lsr_hlix_a
   161                          	EXTERN ____sdcc_ll_lsr_mbc_a
   162                          	EXTERN ____sdcc_ll_push_hlix
   163                          	EXTERN ____sdcc_ll_push_mhl
   164                          	EXTERN ____sdcc_ll_sub_de_bc_hl
   165                          	EXTERN ____sdcc_ll_sub_de_bc_hlix
   166                          	EXTERN ____sdcc_ll_sub_de_hlix_bc
   167                          	EXTERN ____sdcc_ll_sub_de_hlix_bcix
   168                          	EXTERN ____sdcc_ll_sub_deix_bc_hl
   169                          	EXTERN ____sdcc_ll_sub_deix_hlix
   170                          	EXTERN ____sdcc_ll_sub_hlix_bc_deix
   171                          	EXTERN ____sdcc_ll_sub_hlix_deix_bc
   172                          	EXTERN ____sdcc_ll_sub_hlix_deix_bcix
   173                          	EXTERN ____sdcc_load_debc_deix
   174                          	EXTERN ____sdcc_load_dehl_deix
   175                          	EXTERN ____sdcc_load_debc_mhl
   176                          	EXTERN ____sdcc_load_hlde_mhl
   177                          	EXTERN ____sdcc_store_dehl_bcix
   178                          	EXTERN ____sdcc_store_debc_hlix
   179                          	EXTERN ____sdcc_store_debc_mhl
   180                          	EXTERN ____sdcc_cpu_pop_ei
   181                          	EXTERN ____sdcc_cpu_pop_ei_jp
   182                          	EXTERN ____sdcc_cpu_push_di
   183                          	EXTERN ____sdcc_outi
   184                          	EXTERN ____sdcc_outi_128
   185                          	EXTERN ____sdcc_outi_256
   186                          	EXTERN ____sdcc_ldi
   187                          	EXTERN ____sdcc_ldi_128
   188                          	EXTERN ____sdcc_ldi_256
   189                          	EXTERN ____sdcc_4_copy_srcd_hlix_dst_deix
   190                          	EXTERN ____sdcc_4_and_src_mbc_mhl_dst_deix
   191                          	EXTERN ____sdcc_4_or_src_mbc_mhl_dst_deix
   192                          	EXTERN ____sdcc_4_xor_src_mbc_mhl_dst_deix
   193                          	EXTERN ____sdcc_4_or_src_dehl_dst_bcix
   194                          	EXTERN ____sdcc_4_xor_src_dehl_dst_bcix
   195                          	EXTERN ____sdcc_4_and_src_dehl_dst_bcix
   196                          	EXTERN ____sdcc_4_xor_src_mbc_mhl_dst_debc
   197                          	EXTERN ____sdcc_4_or_src_mbc_mhl_dst_debc
   198                          	EXTERN ____sdcc_4_and_src_mbc_mhl_dst_debc
   199                          	EXTERN ____sdcc_4_cpl_src_mhl_dst_debc
   200                          	EXTERN ____sdcc_4_xor_src_debc_mhl_dst_debc
   201                          	EXTERN ____sdcc_4_or_src_debc_mhl_dst_debc
   202                          	EXTERN ____sdcc_4_and_src_debc_mhl_dst_debc
   203                          	EXTERN ____sdcc_4_and_src_debc_hlix_dst_debc
   204                          	EXTERN ____sdcc_4_or_src_debc_hlix_dst_debc
   205                          	EXTERN ____sdcc_4_xor_src_debc_hlix_dst_debc
   206                          
   207                          ;--------------------------------------------------------
   208                          ; Public variables in this module
   209                          ;--------------------------------------------------------
   210                          	GLOBAL _std_norm_dist_lookup
   211                          	GLOBAL _limited_normal_dist_random
   212                          	GLOBAL _normal_dist_random
   213                          ;--------------------------------------------------------
   214                          ; Externals used
   215                          ;--------------------------------------------------------
   216                          	GLOBAL _env_getenv_callee
   217                          	GLOBAL _env_getenv
   218                          	GLOBAL _getenv_ex_callee
   219                          	GLOBAL _getenv_ex
   220                          	GLOBAL _getenv_fastcall
   221                          	GLOBAL _getenv
   222                          	GLOBAL _mkstemp_ex_fastcall
   223                          	GLOBAL _mkstemp_ex
   224                          	GLOBAL _ulltoa_callee
   225                          	GLOBAL _ulltoa
   226                          	GLOBAL _strtoull_callee
   227                          	GLOBAL _strtoull
   228                          	GLOBAL _strtoll_callee
   229                          	GLOBAL _strtoll
   230                          	GLOBAL _lltoa_callee
   231                          	GLOBAL _lltoa
   232                          	GLOBAL _llabs_callee
   233                          	GLOBAL _llabs
   234                          	GLOBAL __lldivu__callee
   235                          	GLOBAL __lldivu_
   236                          	GLOBAL __lldiv__callee
   237                          	GLOBAL __lldiv_
   238                          	GLOBAL _atoll_callee
   239                          	GLOBAL _atoll
   240                          	GLOBAL _realloc_unlocked_callee
   241                          	GLOBAL _realloc_unlocked
   242                          	GLOBAL _malloc_unlocked_fastcall
   243                          	GLOBAL _malloc_unlocked
   244                          	GLOBAL _free_unlocked_fastcall
   245                          	GLOBAL _free_unlocked
   246                          	GLOBAL _calloc_unlocked_callee
   247                          	GLOBAL _calloc_unlocked
   248                          	GLOBAL _aligned_alloc_unlocked_callee
   249                          	GLOBAL _aligned_alloc_unlocked
   250                          	GLOBAL _realloc_callee
   251                          	GLOBAL _realloc
   252                          	GLOBAL _malloc_fastcall
   253                          	GLOBAL _malloc
   254                          	GLOBAL _free_fastcall
   255                          	GLOBAL _free
   256                          	GLOBAL _calloc_callee
   257                          	GLOBAL _calloc
   258                          	GLOBAL _aligned_alloc_callee
   259                          	GLOBAL _aligned_alloc
   260                          	GLOBAL _utoa_callee
   261                          	GLOBAL _utoa
   262                          	GLOBAL _ultoa_callee
   263                          	GLOBAL _ultoa
   264                          	GLOBAL _system_fastcall
   265                          	GLOBAL _system
   266                          	GLOBAL _strtoul_callee
   267                          	GLOBAL _strtoul
   268                          	GLOBAL _strtol_callee
   269                          	GLOBAL _strtol
   270                          	GLOBAL _strtof_callee
   271                          	GLOBAL _strtof
   272                          	GLOBAL _strtod_callee
   273                          	GLOBAL _strtod
   274                          	GLOBAL _srand_fastcall
   275                          	GLOBAL _srand
   276                          	GLOBAL _rand
   277                          	GLOBAL _quick_exit_fastcall
   278                          	GLOBAL _quick_exit
   279                          	GLOBAL _qsort_callee
   280                          	GLOBAL _qsort
   281                          	GLOBAL _ltoa_callee
   282                          	GLOBAL _ltoa
   283                          	GLOBAL _labs_fastcall
   284                          	GLOBAL _labs
   285                          	GLOBAL _itoa_callee
   286                          	GLOBAL _itoa
   287                          	GLOBAL _ftoh_callee
   288                          	GLOBAL _ftoh
   289                          	GLOBAL _ftog_callee
   290                          	GLOBAL _ftog
   291                          	GLOBAL _ftoe_callee
   292                          	GLOBAL _ftoe
   293                          	GLOBAL _ftoa_callee
   294                          	GLOBAL _ftoa
   295                          	GLOBAL _exit_fastcall
   296                          	GLOBAL _exit
   297                          	GLOBAL _dtoh_callee
   298                          	GLOBAL _dtoh
   299                          	GLOBAL _dtog_callee
   300                          	GLOBAL _dtog
   301                          	GLOBAL _dtoe_callee
   302                          	GLOBAL _dtoe
   303                          	GLOBAL _dtoa_callee
   304                          	GLOBAL _dtoa
   305                          	GLOBAL _bsearch_callee
   306                          	GLOBAL _bsearch
   307                          	GLOBAL _atol_fastcall
   308                          	GLOBAL _atol
   309                          	GLOBAL _atoi_fastcall
   310                          	GLOBAL _atoi
   311                          	GLOBAL _atof_fastcall
   312                          	GLOBAL _atof
   313                          	GLOBAL _atexit_fastcall
   314                          	GLOBAL _atexit
   315                          	GLOBAL _at_quick_exit_fastcall
   316                          	GLOBAL _at_quick_exit
   317                          	GLOBAL _abs_fastcall
   318                          	GLOBAL _abs
   319                          	GLOBAL _abort
   320                          	GLOBAL __strtou__callee
   321                          	GLOBAL __strtou_
   322                          	GLOBAL __strtoi__callee
   323                          	GLOBAL __strtoi_
   324                          	GLOBAL __random_uniform_xor_8__fastcall
   325                          	GLOBAL __random_uniform_xor_8_
   326                          	GLOBAL __random_uniform_xor_32__fastcall
   327                          	GLOBAL __random_uniform_xor_32_
   328                          	GLOBAL __random_uniform_cmwc_8__fastcall
   329                          	GLOBAL __random_uniform_cmwc_8_
   330                          	GLOBAL __shellsort__callee
   331                          	GLOBAL __shellsort_
   332                          	GLOBAL __quicksort__callee
   333                          	GLOBAL __quicksort_
   334                          	GLOBAL __insertion_sort__callee
   335                          	GLOBAL __insertion_sort_
   336                          	GLOBAL __ldivu__callee
   337                          	GLOBAL __ldivu_
   338                          	GLOBAL __ldiv__callee
   339                          	GLOBAL __ldiv_
   340                          	GLOBAL __divu__callee
   341                          	GLOBAL __divu_
   342                          	GLOBAL __div__callee
   343                          	GLOBAL __div_
   344                          	GLOBAL _poly_callee
   345                          	GLOBAL _poly
   346                          	GLOBAL _exp10_fastcall
   347                          	GLOBAL _exp10
   348                          	GLOBAL _mul10u_fastcall
   349                          	GLOBAL _mul10u
   350                          	GLOBAL _mul2_fastcall
   351                          	GLOBAL _mul2
   352                          	GLOBAL _div2_fastcall
   353                          	GLOBAL _div2
   354                          	GLOBAL _invsqrt_fastcall
   355                          	GLOBAL _invsqrt
   356                          	GLOBAL _inv_fastcall
   357                          	GLOBAL _inv
   358                          	GLOBAL _sqr_fastcall
   359                          	GLOBAL _sqr
   360                          	GLOBAL _neg_fastcall
   361                          	GLOBAL _neg
   362                          	GLOBAL _isunordered_callee
   363                          	GLOBAL _isunordered
   364                          	GLOBAL _islessgreater_callee
   365                          	GLOBAL _islessgreater
   366                          	GLOBAL _islessequal_callee
   367                          	GLOBAL _islessequal
   368                          	GLOBAL _isless_callee
   369                          	GLOBAL _isless
   370                          	GLOBAL _isgreaterequal_callee
   371                          	GLOBAL _isgreaterequal
   372                          	GLOBAL _isgreater_callee
   373                          	GLOBAL _isgreater
   374                          	GLOBAL _fma_callee
   375                          	GLOBAL _fma
   376                          	GLOBAL _fmin_callee
   377                          	GLOBAL _fmin
   378                          	GLOBAL _fmax_callee
   379                          	GLOBAL _fmax
   380                          	GLOBAL _fdim_callee
   381                          	GLOBAL _fdim
   382                          	GLOBAL _nexttoward_callee
   383                          	GLOBAL _nexttoward
   384                          	GLOBAL _nextafter_callee
   385                          	GLOBAL _nextafter
   386                          	GLOBAL _nan_fastcall
   387                          	GLOBAL _nan
   388                          	GLOBAL _copysign_callee
   389                          	GLOBAL _copysign
   390                          	GLOBAL _remquo_callee
   391                          	GLOBAL _remquo
   392                          	GLOBAL _remainder_callee
   393                          	GLOBAL _remainder
   394                          	GLOBAL _fmod_callee
   395                          	GLOBAL _fmod
   396                          	GLOBAL _modf_callee
   397                          	GLOBAL _modf
   398                          	GLOBAL _trunc_fastcall
   399                          	GLOBAL _trunc
   400                          	GLOBAL _lround_fastcall
   401                          	GLOBAL _lround
   402                          	GLOBAL _round_fastcall
   403                          	GLOBAL _round
   404                          	GLOBAL _lrint_fastcall
   405                          	GLOBAL _lrint
   406                          	GLOBAL _rint_fastcall
   407                          	GLOBAL _rint
   408                          	GLOBAL _nearbyint_fastcall
   409                          	GLOBAL _nearbyint
   410                          	GLOBAL _floor_fastcall
   411                          	GLOBAL _floor
   412                          	GLOBAL _ceil_fastcall
   413                          	GLOBAL _ceil
   414                          	GLOBAL _tgamma_fastcall
   415                          	GLOBAL _tgamma
   416                          	GLOBAL _lgamma_fastcall
   417                          	GLOBAL _lgamma
   418                          	GLOBAL _erfc_fastcall
   419                          	GLOBAL _erfc
   420                          	GLOBAL _erf_fastcall
   421                          	GLOBAL _erf
   422                          	GLOBAL _cbrt_fastcall
   423                          	GLOBAL _cbrt
   424                          	GLOBAL _sqrt_fastcall
   425                          	GLOBAL _sqrt
   426                          	GLOBAL _pow_callee
   427                          	GLOBAL _pow
   428                          	GLOBAL _hypot_callee
   429                          	GLOBAL _hypot
   430                          	GLOBAL _fabs_fastcall
   431                          	GLOBAL _fabs
   432                          	GLOBAL _logb_fastcall
   433                          	GLOBAL _logb
   434                          	GLOBAL _log2_fastcall
   435                          	GLOBAL _log2
   436                          	GLOBAL _log1p_fastcall
   437                          	GLOBAL _log1p
   438                          	GLOBAL _log10_fastcall
   439                          	GLOBAL _log10
   440                          	GLOBAL _log_fastcall
   441                          	GLOBAL _log
   442                          	GLOBAL _ilogb_fastcall
   443                          	GLOBAL _ilogb
   444                          	GLOBAL _scalbln_callee
   445                          	GLOBAL _scalbln
   446                          	GLOBAL _scalbn_callee
   447                          	GLOBAL _scalbn
   448                          	GLOBAL _ldexp_callee
   449                          	GLOBAL _ldexp
   450                          	GLOBAL _frexp_callee
   451                          	GLOBAL _frexp
   452                          	GLOBAL _expm1_fastcall
   453                          	GLOBAL _expm1
   454                          	GLOBAL _exp2_fastcall
   455                          	GLOBAL _exp2
   456                          	GLOBAL _exp_fastcall
   457                          	GLOBAL _exp
   458                          	GLOBAL _tanh_fastcall
   459                          	GLOBAL _tanh
   460                          	GLOBAL _sinh_fastcall
   461                          	GLOBAL _sinh
   462                          	GLOBAL _cosh_fastcall
   463                          	GLOBAL _cosh
   464                          	GLOBAL _atanh_fastcall
   465                          	GLOBAL _atanh
   466                          	GLOBAL _asinh_fastcall
   467                          	GLOBAL _asinh
   468                          	GLOBAL _acosh_fastcall
   469                          	GLOBAL _acosh
   470                          	GLOBAL _tan_fastcall
   471                          	GLOBAL _tan
   472                          	GLOBAL _sin_fastcall
   473                          	GLOBAL _sin
   474                          	GLOBAL _cos_fastcall
   475                          	GLOBAL _cos
   476                          	GLOBAL _atan2_callee
   477                          	GLOBAL _atan2
   478                          	GLOBAL _atan_fastcall
   479                          	GLOBAL _atan
   480                          	GLOBAL _asin_fastcall
   481                          	GLOBAL _asin
   482                          	GLOBAL _acos_fastcall
   483                          	GLOBAL _acos
   484                          ;--------------------------------------------------------
   485                          ; special function registers
   486                          ;--------------------------------------------------------
   487                          ;--------------------------------------------------------
   488                          ; ram data
   489                          ;--------------------------------------------------------
   490                          	SECTION bss_compiler
   491                          ;--------------------------------------------------------
   492                          ; ram data
   493                          ;--------------------------------------------------------
   494                          
   495                          IF 0
   496                          
   497                          ; .area _INITIALIZED removed by z88dk
   498                          
   499                          
   500                          ENDIF
   501                          
   502                          ;--------------------------------------------------------
   503                          ; absolute external ram data
   504                          ;--------------------------------------------------------
   505                          	SECTION IGNORE
   506                          ;--------------------------------------------------------
   507                          ; global & static initialisations
   508                          ;--------------------------------------------------------
   509                          	SECTION code_crt_init
   510                          ;--------------------------------------------------------
   511                          ; Home
   512                          ;--------------------------------------------------------
   513                          	SECTION IGNORE
   514                          ;--------------------------------------------------------
   515                          ; code
   516                          ;--------------------------------------------------------
   517                          	SECTION BANK_8
   518                          ;xrandom.c:13: int value = normal_dist_random(mean, stddev);
   519                          ;	---------------------------------
   520                          ; Function limited_normal_dist_random
   521                          ; ---------------------------------
   522                          _limited_normal_dist_random:
   523  0000  cd0000            	call	___sdcc_enter_ix
   524                          ;xrandom.c:15: value = mean - max_dev;
   525  0003  210000            	ld	hl,4
   526  0006  cd0000            	call	____sdcc_4_push_hlix
   527  0009  cd0000            	call	_normal_dist_random
   528  000c  f1                	pop	af
   529  000d  f1                	pop	af
   530  000e  eb                	ex	de, hl
   531                          ;xrandom.c:16: else if (value > mean + max_dev)
   532  000f  dd7e00            	ld	a,(ix+4)
   533  0012  dd9600            	sub	a,(ix+8)
   534  0015  4f                	ld	c, a
   535  0016  dd7e00            	ld	a,(ix+5)
   536  0019  dd9e00            	sbc	a,(ix+9)
   537  001c  47                	ld	b, a
   538  001d  7b                	ld	a, e
   539  001e  91                	sub	a, c
   540  001f  7a                	ld	a, d
   541  0020  98                	sbc	a, b
   542  0021  e20000            	jp	PO, l_limited_normal_dist_random_00118
   543  0024  ee00              	xor	a,0x80
   544                          l_limited_normal_dist_random_00118:
   545  0026  f20000            	jp	P, l_limited_normal_dist_random_00104
   546                          ;xrandom.c:17: value = mean + max_dev;
   547  0029  59                	ld	e, c
   548  002a  50                	ld	d, b
   549  002b  181c              	jr	l_limited_normal_dist_random_00105
   550                          l_limited_normal_dist_random_00104:
   551                          ;xrandom.c:18: return value;
   552  002d  dd7e04            	ld	a,(ix+4)
   553  0030  dd8608            	add	a,(ix+8)
   554  0033  4f                	ld	c, a
   555  0034  dd7e05            	ld	a,(ix+5)
   556  0037  dd8e09            	adc	a,(ix+9)
   557  003a  47                	ld	b, a
   558  003b  79                	ld	a, c
   559  003c  93                	sub	a, e
   560  003d  78                	ld	a, b
   561  003e  9a                	sbc	a, d
   562  003f  e24400            	jp	PO, l_limited_normal_dist_random_00119
   563  0042  ee80              	xor	a,0x80
   564                          l_limited_normal_dist_random_00119:
   565  0044  f24900            	jp	P, l_limited_normal_dist_random_00105
   566                          ;xrandom.c:19: }
   567  0047  59                	ld	e, c
   568  0048  50                	ld	d, b
   569                          l_limited_normal_dist_random_00105:
   570                          ;xrandom.c:20:
   571  0049  eb                	ex	de, hl
   572                          ;xrandom.c:21: const float std_norm_dist_lookup[11] = {
   573  004a  dde1              	pop	ix
   574  004c  c9                	ret
   575                          ;xrandom.c:40: // Generate uniform random value in [0,1]
   576                          ;	---------------------------------
   577                          ; Function normal_dist_random
   578                          ; ---------------------------------
   579                          _normal_dist_random:
   580  004d  cd0000            	call	___sdcc_enter_ix
   581  0050  21f8ff            	ld	hl, -8
   582  0053  39                	add	hl, sp
   583  0054  f9                	ld	sp, hl
   584                          ;xrandom.c:43: // Constrain u to avoid extreme values (0.01 to 0.99 range)
   585  0055  cd0000            	call	_rand
   586  0058  110001            	ld	de,0x0100
   587  005b  d5                	push	de
   588  005c  e5                	push	hl
   589  005d  cd0000            	call	__modsint_callee
   590  0060  e5                	push	hl
   591  0061  cd0000            	call	___sint2fs_callee
   592  0064  017f43            	ld	bc,0x437f
   593  0067  c5                	push	bc
   594  0068  010000            	ld	bc,0x0000
   595  006b  c5                	push	bc
   596  006c  d5                	push	de
   597  006d  e5                	push	hl
   598  006e  cd0000            	call	___fsdiv_callee
   599                          ;xrandom.c:46: // Linear interpolation between table values
   600  0071  d5                	push	de
   601  0072  e5                	push	hl
   602  0073  217a3f            	ld	hl,0x3f7a
   603  0076  e5                	push	hl
   604  0077  2148e1            	ld	hl,0xe148
   605  007a  e5                	push	hl
   606  007b  cd0000            	call	___fsmul_callee
   607  007e  01233c            	ld	bc,0x3c23
   608  0081  c5                	push	bc
   609  0082  010ad7            	ld	bc,0xd70a
   610  0085  c5                	push	bc
   611  0086  d5                	push	de
   612  0087  e5                	push	hl
   613  0088  cd0000            	call	___fsadd_callee
   614                          ;xrandom.c:49: float fraction = index_f - (float)index;
   615  008b  d5                	push	de
   616  008c  e5                	push	hl
   617  008d  212041            	ld	hl,0x4120
   618  0090  e5                	push	hl
   619  0091  210000            	ld	hl,0x0000
   620  0094  e5                	push	hl
   621  0095  cd0000            	call	___fsmul_callee
   622                          ;xrandom.c:50:
   623  0098  e5                	push	hl
   624  0099  d5                	push	de
   625  009a  d5                	push	de
   626  009b  e5                	push	hl
   627  009c  cd0000            	call	___fs2sint_callee
   628  009f  4d                	ld	c, l
   629  00a0  44                	ld	b, h
   630  00a1  d1                	pop	de
   631  00a2  c5                	push	bc
   632  00a3  d5                	push	de
   633  00a4  c5                	push	bc
   634  00a5  cd0000            	call	___sint2fs_callee
   635  00a8  01ffff            	ld	bc,-1
   636  00ab  cd0000            	call	____sdcc_store_dehl_bcix
   637  00ae  d1                	pop	de
   638  00af  c1                	pop	bc
   639  00b0  e1                	pop	hl
   640  00b1  c5                	push	bc
   641  00b2  e5                	push	hl
   642  00b3  dd6efe            	ld	l,(ix-2)
   643  00b6  dd66ff            	ld	h,(ix-1)
   644  00b9  e3                	ex	(sp), hl
   645  00ba  e5                	push	hl
   646  00bb  dd6efc            	ld	l,(ix-4)
   647  00be  dd66fd            	ld	h,(ix-3)
   648  00c1  e3                	ex	(sp), hl
   649  00c2  d5                	push	de
   650  00c3  e5                	push	hl
   651  00c4  cd0000            	call	___fssub_callee
   652  00c7  c1                	pop	bc
   653  00c8  e3                	ex	(sp), hl
   654  00c9  dd73fa            	ld	(ix-6),e
   655  00cc  dd72fb            	ld	(ix-5),d
   656                          ;xrandom.c:54: // Scale and shift to desired mean and standard deviation
   657  00cf  110000            	ld	de,_std_norm_dist_lookup+0
   658  00d2  69                	ld	l, c
   659  00d3  60                	ld	h, b
   660  00d4  29                	add	hl, hl
   661  00d5  29                	add	hl, hl
   662  00d6  19                	add	hl, de
   663  00d7  d5                	push	de
   664  00d8  eb                	ex	de,hl
   665  00d9  210600            	ld	hl,8-2
   666  00dc  39                	add	hl,sp
   667  00dd  eb                	ex	de,hl
   668  00de  cd0000            	call	____sdcc_4_ldi_save_bc
   669  00e1  d1                	pop	de
   670  00e2  0c                	inc	c
   671  00e3  79                	ld	a, c
   672  00e4  07                	rlca
   673  00e5  9f                	sbc	a, a
   674  00e6  69                	ld	l, c
   675  00e7  67                	ld	h, a
   676  00e8  29                	add	hl, hl
   677  00e9  29                	add	hl, hl
   678  00ea  19                	add	hl, de
   679  00eb  cd0000            	call	____sdcc_load_debc_mhl
   680  00ee  21fcff            	ld	hl,-4
   681  00f1  cd0000            	call	____sdcc_4_push_hlix
   682  00f4  d5                	push	de
   683  00f5  c5                	push	bc
   684  00f6  cd0000            	call	___fssub_callee
   685  00f9  d5                	push	de
   686  00fa  e5                	push	hl
   687  00fb  21f8ff            	ld	hl,-8
   688  00fe  cd0000            	call	____sdcc_4_push_hlix
   689  0101  cd0000            	call	___fsmul_callee
   690  0104  d5                	push	de
   691  0105  e5                	push	hl
   692  0106  21fcff            	ld	hl,-4
   693  0109  cd0000            	call	____sdcc_4_push_hlix
   694  010c  cd0000            	call	___fsadd_callee
   695  010f  01ffff            	ld	bc,-1
   696  0112  cd0000            	call	____sdcc_store_dehl_bcix
   697                          ;xrandom.c:57: ERROR: no line number 57 in file xrandom.c
   698  0115  dd6e06            	ld	l,(ix+6)
   699  0118  dd6607            	ld	h,(ix+7)
   700  011b  e5                	push	hl
   701  011c  cd0000            	call	___sint2fs_callee
   702  011f  d5                	push	de
   703  0120  e5                	push	hl
   704  0121  21fcff            	ld	hl,-4
   705  0124  cd0000            	call	____sdcc_4_push_hlix
   706  0127  cd0000            	call	___fsmul_callee
   707  012a  01ffff            	ld	bc,-1
   708  012d  cd0000            	call	____sdcc_store_dehl_bcix
   709  0130  dd6e04            	ld	l,(ix+4)
   710  0133  dd6605            	ld	h,(ix+5)
   711  0136  e5                	push	hl
   712  0137  cd0000            	call	___sint2fs_callee
   713  013a  dd4efe            	ld	c,(ix-2)
   714  013d  dd46ff            	ld	b,(ix-1)
   715  0140  c5                	push	bc
   716  0141  dd4efc            	ld	c,(ix-4)
   717  0144  dd46fd            	ld	b,(ix-3)
   718  0147  c5                	push	bc
   719  0148  d5                	push	de
   720  0149  e5                	push	hl
   721  014a  cd0000            	call	___fsadd_callee
   722  014d  4d                	ld	c, l
   723  014e  44                	ld	b, h
   724  014f  21003f            	ld	hl,0x3f00
   725  0152  e5                	push	hl
   726  0153  65                	ld	h, l
   727  0154  e5                	push	hl
   728  0155  d5                	push	de
   729  0156  c5                	push	bc
   730  0157  cd0000            	call	___fsadd_callee
   731  015a  d5                	push	de
   732  015b  e5                	push	hl
   733  015c  cd0000            	call	___fs2sint
   734                          ;xrandom.c:58: ERROR: no line number 58 in file xrandom.c
   735  015f  ddf9              	ld	sp,ix
   736  0161  dde1              	pop	ix
   737  0163  c9                	ret
   738                          	SECTION rodata_compiler
   739                          _std_norm_dist_lookup:
   740  0000  b81e15c0          	DEFB +0xb8,0x1e, +0x15, +0xc0
   741  0004  0ad7a3bf          	DEFB +0x0a,0xd7, +0xa3, +0xbf
   742  0008  3d0a57bf          	DEFB +0x3d,0x0a, +0x57, +0xbf
   743  000c  b81e05bf          	DEFB +0xb8,0x1e, +0x05, +0xbf
   744  0010  000080be          	DEFB +0x00,0x00, +0x80, +0xbe
   745  0014  00000000          	DEFB +0x00,0x00, +0x00, +0x00
   746  0018  0000803e          	DEFB +0x00,0x00, +0x80, +0x3e
   747  001c  b81e053f          	DEFB +0xb8,0x1e, +0x05, +0x3f
   748  0020  3d0a573f          	DEFB +0x3d,0x0a, +0x57, +0x3f
   749  0024  0ad7a33f          	DEFB +0x0a,0xd7, +0xa3, +0x3f
   750  0028  b81e1540          	DEFB +0xb8,0x1e, +0x15, +0x40
   751                          	SECTION IGNORE
   752                          
